; ModuleID = 'flashloan0.e77c14a6-cgu.0'
source_filename = "flashloan0.e77c14a6-cgu.0"
target datalayout = "e-m:e-p270:32:32-p271:32:32-p272:64:64-i64:64-f80:128-n8:16:32:64-S128"
target triple = "x86_64-unknown-linux-gnu"

%"std::thread::local::fast::Key<core::cell::RefCell<ink_env::engine::off_chain::EnvInstance>>" = type { %"std::thread::local::lazy::LazyKeyInner<core::cell::RefCell<ink_env::engine::off_chain::EnvInstance>>", i8, [7 x i8] }
%"std::thread::local::lazy::LazyKeyInner<core::cell::RefCell<ink_env::engine::off_chain::EnvInstance>>" = type { %"core::cell::UnsafeCell<core::option::Option<core::cell::RefCell<ink_env::engine::off_chain::EnvInstance>>>" }
%"core::cell::UnsafeCell<core::option::Option<core::cell::RefCell<ink_env::engine::off_chain::EnvInstance>>>" = type { %"core::option::Option<core::cell::RefCell<ink_env::engine::off_chain::EnvInstance>>" }
%"core::option::Option<core::cell::RefCell<ink_env::engine::off_chain::EnvInstance>>" = type { i64, [58 x i64] }
%"alloc::vec::Vec<u8>" = type { { i64, i8* }, i64 }
%"flashloan0::_::CallBuilder" = type { %"ink_primitives::types::AccountId" }
%"ink_primitives::types::AccountId" = type { [32 x i8] }
%"core::result::Result<scale_info::ty::path::Path, scale_info::ty::path::PathError>" = type { i64, [3 x i64] }
%"core::iter::adapters::map::Map<core::array::iter::IntoIter<&str, 2>, for<'a> fn(&'a str) -> &'a str {<str as core::convert::AsRef<str>>::as_ref}>" = type { {}, %"core::array::iter::IntoIter<&str, 2>" }
%"core::array::iter::IntoIter<&str, 2>" = type { [2 x { i8*, i64 }], { i64, i64 } }
%"alloc::vec::Vec<&str>" = type { { i64, i64* }, i64 }
%"core::iter::adapters::map::Map<core::array::iter::IntoIter<&str, 1>, for<'a> fn(&'a str) -> &'a str {<str as core::convert::AsRef<str>>::as_ref}>" = type { {}, %"core::array::iter::IntoIter<&str, 1>" }
%"core::array::iter::IntoIter<&str, 1>" = type { [1 x { i8*, i64 }], { i64, i64 } }
%"scale_info::ty::Type" = type { %"scale_info::ty::path::Path", %"alloc::vec::Vec<scale_info::ty::TypeParameter>", %"alloc::vec::Vec<&str>", %"scale_info::ty::TypeDef" }
%"scale_info::ty::path::Path" = type { %"alloc::vec::Vec<&str>" }
%"alloc::vec::Vec<scale_info::ty::TypeParameter>" = type { { i64, i64* }, i64 }
%"scale_info::ty::TypeDef" = type { i8, [39 x i8] }
%"scale_info::build::TypeBuilder<scale_info::form::MetaForm, scale_info::build::state::PathAssigned>" = type { %"core::marker::PhantomData<fn() -> (scale_info::form::MetaForm, scale_info::build::state::PathAssigned)>", %"core::option::Option<scale_info::ty::path::Path>", %"alloc::vec::Vec<scale_info::ty::TypeParameter>", %"alloc::vec::Vec<&str>" }
%"core::marker::PhantomData<fn() -> (scale_info::form::MetaForm, scale_info::build::state::PathAssigned)>" = type {}
%"core::option::Option<scale_info::ty::path::Path>" = type { [1 x i64], {}*, [1 x i64] }
%"scale_info::build::Variants" = type { %"alloc::vec::Vec<scale_info::ty::variant::Variant>" }
%"alloc::vec::Vec<scale_info::ty::variant::Variant>" = type { { i64, i64* }, i64 }
%"scale_info::ty::variant::TypeDefVariant" = type { %"alloc::vec::Vec<scale_info::ty::variant::Variant>" }
%"scale_info::ty::variant::Variant" = type { { [0 x i8]*, i64 }, %"alloc::vec::Vec<scale_info::ty::fields::Field>", %"alloc::vec::Vec<&str>", i8, [7 x i8] }
%"alloc::vec::Vec<scale_info::ty::fields::Field>" = type { { i64, i64* }, i64 }
%"core::panic::location::Location<'_>" = type { { [0 x i8]*, i64 }, i32, i32 }
%"scale_info::ty::TypeParameter" = type { { i64, i64* }, { [0 x i8]*, i64 } }
%"scale_info::ty::fields::Field" = type { { i8*, i64 }, { i8*, i64 }, { i64, i64* }, %"alloc::vec::Vec<&str>" }
%"scale_info::build::FieldsBuilder<scale_info::form::MetaForm, scale_info::build::UnnamedFields>" = type { %"core::marker::PhantomData<fn() -> scale_info::build::UnnamedFields>", %"alloc::vec::Vec<scale_info::ty::fields::Field>" }
%"core::marker::PhantomData<fn() -> scale_info::build::UnnamedFields>" = type {}
%"scale_info::build::VariantBuilder<scale_info::form::MetaForm, scale_info::build::variant_state::IndexAssigned>" = type { %"core::marker::PhantomData<scale_info::build::variant_state::IndexAssigned>", { [0 x i8]*, i64 }, { i64, i64 }, %"alloc::vec::Vec<scale_info::ty::fields::Field>", %"alloc::vec::Vec<&str>", { i8, i8 }, [6 x i8] }
%"core::marker::PhantomData<scale_info::build::variant_state::IndexAssigned>" = type {}
%"scale_info::build::TypeBuilder" = type { %"core::marker::PhantomData<fn() -> (scale_info::form::MetaForm, scale_info::build::state::PathNotAssigned)>", %"core::option::Option<scale_info::ty::path::Path>", %"alloc::vec::Vec<scale_info::ty::TypeParameter>", %"alloc::vec::Vec<&str>" }
%"core::marker::PhantomData<fn() -> (scale_info::form::MetaForm, scale_info::build::state::PathNotAssigned)>" = type {}
%"scale_info::ty::composite::TypeDefComposite" = type { %"alloc::vec::Vec<scale_info::ty::fields::Field>" }
%"scale_info::build::FieldsBuilder<scale_info::form::MetaForm, scale_info::build::NamedFields>" = type { %"core::marker::PhantomData<fn() -> scale_info::build::NamedFields>", %"alloc::vec::Vec<scale_info::ty::fields::Field>" }
%"core::marker::PhantomData<fn() -> scale_info::build::NamedFields>" = type {}
%"std::thread::local::AccessError" = type {}
%"core::fmt::Arguments<'_>" = type { { i64*, i64 }, { [0 x { [0 x i8]*, i64 }]*, i64 }, { [0 x { i8*, i64* }]*, i64 } }
%"ink_env::error::Error" = type { i64, [5 x i64] }
%"core::result::Result<(), parity_scale_codec::error::Error>" = type { i64, [4 x i64] }
%"ink_engine::ext::Engine" = type { %"ink_engine::test_api::DebugInfo", %"ink_engine::database::Database", %"ink_engine::ext::ChainSpec", %"ink_engine::exec_context::ExecContext", %"ink_engine::chain_extension::ChainExtensionHandler" }
%"ink_engine::test_api::DebugInfo" = type { %"std::collections::hash::map::HashMap<ink_engine::types::AccountId, usize>", %"std::collections::hash::map::HashMap<ink_engine::types::AccountId, usize>", %"std::collections::hash::map::HashMap<ink_engine::types::AccountId, std::collections::hash::map::HashMap<alloc::vec::Vec<u8>, bool>>", %"alloc::vec::Vec<ink_engine::test_api::EmittedEvent>", %"ink_engine::test_api::RecordedDebugMessages" }
%"std::collections::hash::map::HashMap<ink_engine::types::AccountId, usize>" = type { %"hashbrown::map::HashMap<ink_engine::types::AccountId, usize, std::collections::hash::map::RandomState>" }
%"hashbrown::map::HashMap<ink_engine::types::AccountId, usize, std::collections::hash::map::RandomState>" = type { %"hashbrown::raw::RawTable<(ink_engine::types::AccountId, usize)>", { i64, i64 } }
%"hashbrown::raw::RawTable<(ink_engine::types::AccountId, usize)>" = type { %"core::marker::PhantomData<(ink_engine::types::AccountId, usize)>", %"hashbrown::raw::RawTableInner<alloc::alloc::Global>" }
%"core::marker::PhantomData<(ink_engine::types::AccountId, usize)>" = type {}
%"hashbrown::raw::RawTableInner<alloc::alloc::Global>" = type { %"alloc::alloc::Global", i64, i64, i64, i8* }
%"alloc::alloc::Global" = type {}
%"std::collections::hash::map::HashMap<ink_engine::types::AccountId, std::collections::hash::map::HashMap<alloc::vec::Vec<u8>, bool>>" = type { %"hashbrown::map::HashMap<ink_engine::types::AccountId, std::collections::hash::map::HashMap<alloc::vec::Vec<u8>, bool>, std::collections::hash::map::RandomState>" }
%"hashbrown::map::HashMap<ink_engine::types::AccountId, std::collections::hash::map::HashMap<alloc::vec::Vec<u8>, bool>, std::collections::hash::map::RandomState>" = type { %"hashbrown::raw::RawTable<(ink_engine::types::AccountId, std::collections::hash::map::HashMap<alloc::vec::Vec<u8>, bool>)>", { i64, i64 } }
%"hashbrown::raw::RawTable<(ink_engine::types::AccountId, std::collections::hash::map::HashMap<alloc::vec::Vec<u8>, bool>)>" = type { %"core::marker::PhantomData<(ink_engine::types::AccountId, std::collections::hash::map::HashMap<alloc::vec::Vec<u8>, bool>)>", %"hashbrown::raw::RawTableInner<alloc::alloc::Global>" }
%"core::marker::PhantomData<(ink_engine::types::AccountId, std::collections::hash::map::HashMap<alloc::vec::Vec<u8>, bool>)>" = type {}
%"alloc::vec::Vec<ink_engine::test_api::EmittedEvent>" = type { { i64, i64* }, i64 }
%"ink_engine::test_api::RecordedDebugMessages" = type { %"alloc::vec::Vec<alloc::string::String>" }
%"alloc::vec::Vec<alloc::string::String>" = type { { i64, i64* }, i64 }
%"ink_engine::database::Database" = type { %"std::collections::hash::map::HashMap<alloc::vec::Vec<u8>, alloc::vec::Vec<u8>>" }
%"std::collections::hash::map::HashMap<alloc::vec::Vec<u8>, alloc::vec::Vec<u8>>" = type { %"hashbrown::map::HashMap<alloc::vec::Vec<u8>, alloc::vec::Vec<u8>, std::collections::hash::map::RandomState>" }
%"hashbrown::map::HashMap<alloc::vec::Vec<u8>, alloc::vec::Vec<u8>, std::collections::hash::map::RandomState>" = type { %"hashbrown::raw::RawTable<(alloc::vec::Vec<u8>, alloc::vec::Vec<u8>)>", { i64, i64 } }
%"hashbrown::raw::RawTable<(alloc::vec::Vec<u8>, alloc::vec::Vec<u8>)>" = type { %"core::marker::PhantomData<(alloc::vec::Vec<u8>, alloc::vec::Vec<u8>)>", %"hashbrown::raw::RawTableInner<alloc::alloc::Global>" }
%"core::marker::PhantomData<(alloc::vec::Vec<u8>, alloc::vec::Vec<u8>)>" = type {}
%"ink_engine::ext::ChainSpec" = type { i128, i128, i64 }
%"ink_engine::exec_context::ExecContext" = type { i128, %"core::option::Option<ink_engine::types::AccountId>", %"core::option::Option<ink_engine::types::AccountId>", i64, %"alloc::vec::Vec<alloc::vec::Vec<u8>>", i32, [1 x i32] }
%"core::option::Option<ink_engine::types::AccountId>" = type { [1 x i64], {}*, [1 x i64] }
%"alloc::vec::Vec<alloc::vec::Vec<u8>>" = type { { i64, i64* }, i64 }
%"ink_engine::chain_extension::ChainExtensionHandler" = type { %"std::collections::hash::map::HashMap<ink_engine::chain_extension::ExtensionId, alloc::boxed::Box<dyn ink_engine::chain_extension::ChainExtension>>", %"alloc::vec::Vec<u8>" }
%"std::collections::hash::map::HashMap<ink_engine::chain_extension::ExtensionId, alloc::boxed::Box<dyn ink_engine::chain_extension::ChainExtension>>" = type { %"hashbrown::map::HashMap<ink_engine::chain_extension::ExtensionId, alloc::boxed::Box<dyn ink_engine::chain_extension::ChainExtension>, std::collections::hash::map::RandomState>" }
%"hashbrown::map::HashMap<ink_engine::chain_extension::ExtensionId, alloc::boxed::Box<dyn ink_engine::chain_extension::ChainExtension>, std::collections::hash::map::RandomState>" = type { %"hashbrown::raw::RawTable<(ink_engine::chain_extension::ExtensionId, alloc::boxed::Box<dyn ink_engine::chain_extension::ChainExtension>)>", { i64, i64 } }
%"hashbrown::raw::RawTable<(ink_engine::chain_extension::ExtensionId, alloc::boxed::Box<dyn ink_engine::chain_extension::ChainExtension>)>" = type { %"core::marker::PhantomData<(ink_engine::chain_extension::ExtensionId, alloc::boxed::Box<dyn ink_engine::chain_extension::ChainExtension>)>", %"hashbrown::raw::RawTableInner<alloc::alloc::Global>" }
%"core::marker::PhantomData<(ink_engine::chain_extension::ExtensionId, alloc::boxed::Box<dyn ink_engine::chain_extension::ChainExtension>)>" = type {}
%"ink_metadata::specs::TypeSpec" = type { { i64, i64* }, %"scale_info::ty::path::Path" }
%"core::str::iter::Split<'_, &str>" = type { %"core::str::iter::SplitInternal<'_, &str>" }
%"core::str::iter::SplitInternal<'_, &str>" = type { i64, i64, %"core::str::pattern::StrSearcher<'_, '_>", i8, i8, [6 x i8] }
%"core::str::pattern::StrSearcher<'_, '_>" = type { { [0 x i8]*, i64 }, { [0 x i8]*, i64 }, %"core::str::pattern::StrSearcherImpl" }
%"core::str::pattern::StrSearcherImpl" = type { i64, [8 x i64] }
%"ink_metadata::layout::StructLayout" = type { { [0 x i8]*, i64 }, %"alloc::vec::Vec<ink_metadata::layout::FieldLayout>" }
%"alloc::vec::Vec<ink_metadata::layout::FieldLayout>" = type { { i64, i64* }, i64 }
%"ink_metadata::layout::FieldLayout" = type { { [0 x i8]*, i64 }, %"ink_metadata::layout::Layout" }
%"ink_metadata::layout::Layout" = type { [56 x i8], i8, [15 x i8] }
%"core::array::iter::IntoIter<ink_metadata::layout::FieldLayout, 1>" = type { { i64, i64 }, [1 x %"core::mem::maybe_uninit::MaybeUninit<ink_metadata::layout::FieldLayout>"] }
%"core::mem::maybe_uninit::MaybeUninit<ink_metadata::layout::FieldLayout>" = type { [11 x i64] }
%"parity_scale_codec::error::Error" = type { %"alloc::borrow::Cow<'_, str>", i64* }
%"alloc::borrow::Cow<'_, str>" = type { i64, [3 x i64] }
%"std::sys::unix::stdio::Stderr" = type { {} }
%"core::cell::RefCell<ink_env::engine::off_chain::EnvInstance>" = type { i64, %"core::cell::UnsafeCell<ink_env::engine::off_chain::EnvInstance>" }
%"core::cell::UnsafeCell<ink_env::engine::off_chain::EnvInstance>" = type { %"ink_env::engine::off_chain::EnvInstance" }
%"ink_env::engine::off_chain::EnvInstance" = type { %"ink_engine::ext::Engine" }
%"core::fmt::Formatter<'_>" = type { { {}*, [3 x i64]* }, { i64, i64 }, { i64, i64 }, i32, i32, i8, [7 x i8] }
%"flashloan0::Flashloan0" = type { %"ink_storage::lazy::mapping::Mapping<ink_primitives::types::AccountId, u128, ink_storage_traits::impls::ResolverKey<ink_storage_traits::impls::AutoKey, ink_storage_traits::impls::ManualKey<1653958021>>>" }
%"ink_storage::lazy::mapping::Mapping<ink_primitives::types::AccountId, u128, ink_storage_traits::impls::ResolverKey<ink_storage_traits::impls::AutoKey, ink_storage_traits::impls::ManualKey<1653958021>>>" = type { %"core::marker::PhantomData<fn() -> (ink_primitives::types::AccountId, u128, ink_storage_traits::impls::ResolverKey<ink_storage_traits::impls::AutoKey, ink_storage_traits::impls::ManualKey<1653958021>>)>" }
%"core::marker::PhantomData<fn() -> (ink_primitives::types::AccountId, u128, ink_storage_traits::impls::ResolverKey<ink_storage_traits::impls::AutoKey, ink_storage_traits::impls::ManualKey<1653958021>>)>" = type {}
%"ink_engine::types::AccountId" = type { %"alloc::vec::Vec<u8>" }
%"core::array::iter::IntoIter<ink_metadata::specs::ConstructorSpec, 2>" = type { [2 x %"core::mem::maybe_uninit::MaybeUninit<ink_metadata::specs::ConstructorSpec>"], { i64, i64 } }
%"core::mem::maybe_uninit::MaybeUninit<ink_metadata::specs::ConstructorSpec>" = type { [14 x i64] }
%"ink_metadata::specs::ConstructorSpec" = type { { [0 x i8]*, i64 }, %"ink_metadata::specs::ReturnTypeSpec", %"alloc::vec::Vec<ink_metadata::specs::MessageParamSpec>", %"alloc::vec::Vec<&str>", %"ink_metadata::specs::Selector", i8, i8, [2 x i8] }
%"ink_metadata::specs::ReturnTypeSpec" = type { %"core::option::Option<ink_metadata::specs::TypeSpec>" }
%"core::option::Option<ink_metadata::specs::TypeSpec>" = type { [1 x i64], {}*, [3 x i64] }
%"alloc::vec::Vec<ink_metadata::specs::MessageParamSpec>" = type { { i64, i64* }, i64 }
%"ink_metadata::specs::Selector" = type { [4 x i8] }
%"alloc::vec::Vec<scale_info::ty::fields::Field<scale_info::form::PortableForm>>" = type { { i64, i64* }, i64 }
%"scale_info::ty::fields::Field<scale_info::form::PortableForm>" = type { %"core::option::Option<alloc::string::String>", %"core::option::Option<alloc::string::String>", %"alloc::vec::Vec<alloc::string::String>", i32, [1 x i32] }
%"core::option::Option<alloc::string::String>" = type { [1 x i64], {}*, [1 x i64] }
%"alloc::vec::Vec<ink_metadata::specs::EventSpec<scale_info::form::PortableForm>>" = type { { i64, i64* }, i64 }
%"ink_metadata::specs::EventSpec<scale_info::form::PortableForm>" = type { %"alloc::string::String", %"alloc::vec::Vec<ink_metadata::specs::EventParamSpec<scale_info::form::PortableForm>>", %"alloc::vec::Vec<alloc::string::String>" }
%"alloc::string::String" = type { %"alloc::vec::Vec<u8>" }
%"alloc::vec::Vec<ink_metadata::specs::EventParamSpec<scale_info::form::PortableForm>>" = type { { i64, i64* }, i64 }
%"alloc::vec::Vec<ink_metadata::specs::MessageSpec<scale_info::form::PortableForm>>" = type { { i64, i64* }, i64 }
%"ink_metadata::specs::MessageSpec<scale_info::form::PortableForm>" = type { %"ink_metadata::specs::ReturnTypeSpec<scale_info::form::PortableForm>", %"alloc::string::String", %"alloc::vec::Vec<ink_metadata::specs::MessageParamSpec<scale_info::form::PortableForm>>", %"alloc::vec::Vec<alloc::string::String>", %"ink_metadata::specs::Selector", i8, i8, i8, [1 x i8] }
%"ink_metadata::specs::ReturnTypeSpec<scale_info::form::PortableForm>" = type { %"core::option::Option<ink_metadata::specs::TypeSpec<scale_info::form::PortableForm>>" }
%"core::option::Option<ink_metadata::specs::TypeSpec<scale_info::form::PortableForm>>" = type { [1 x i64], {}*, [2 x i64] }
%"alloc::vec::Vec<ink_metadata::specs::MessageParamSpec<scale_info::form::PortableForm>>" = type { { i64, i64* }, i64 }
%"ink_engine::test_api::EmittedEvent" = type { %"alloc::vec::Vec<alloc::vec::Vec<u8>>", %"alloc::vec::Vec<u8>" }
%"std::collections::hash::map::HashMap<alloc::vec::Vec<u8>, bool>" = type { %"hashbrown::map::HashMap<alloc::vec::Vec<u8>, bool, std::collections::hash::map::RandomState>" }
%"hashbrown::map::HashMap<alloc::vec::Vec<u8>, bool, std::collections::hash::map::RandomState>" = type { %"hashbrown::raw::RawTable<(alloc::vec::Vec<u8>, bool)>", { i64, i64 } }
%"hashbrown::raw::RawTable<(alloc::vec::Vec<u8>, bool)>" = type { %"core::marker::PhantomData<(alloc::vec::Vec<u8>, bool)>", %"hashbrown::raw::RawTableInner<alloc::alloc::Global>" }
%"core::marker::PhantomData<(alloc::vec::Vec<u8>, bool)>" = type {}
%"ink_metadata::specs::EventParamSpec<scale_info::form::PortableForm>" = type { %"ink_metadata::specs::TypeSpec<scale_info::form::PortableForm>", %"alloc::string::String", %"alloc::vec::Vec<alloc::string::String>", i8, [7 x i8] }
%"ink_metadata::specs::TypeSpec<scale_info::form::PortableForm>" = type { %"scale_info::ty::path::Path<scale_info::form::PortableForm>", i32, [1 x i32] }
%"scale_info::ty::path::Path<scale_info::form::PortableForm>" = type { %"alloc::vec::Vec<alloc::string::String>" }
%"ink_metadata::specs::MessageParamSpec<scale_info::form::PortableForm>" = type { %"ink_metadata::specs::TypeSpec<scale_info::form::PortableForm>", %"alloc::string::String" }
%"ink_metadata::specs::ContractSpecBuilder<scale_info::form::MetaForm, ink_metadata::specs::Valid>" = type { %"core::marker::PhantomData<fn() -> ink_metadata::specs::Valid>", %"ink_metadata::specs::ContractSpec" }
%"core::marker::PhantomData<fn() -> ink_metadata::specs::Valid>" = type {}
%"ink_metadata::specs::ContractSpec" = type { %"alloc::vec::Vec<ink_metadata::specs::ConstructorSpec>", %"alloc::vec::Vec<ink_metadata::specs::MessageSpec>", %"alloc::vec::Vec<ink_metadata::specs::EventSpec>", %"alloc::vec::Vec<&str>", %"ink_metadata::specs::TypeSpec", %"ink_metadata::specs::EnvironmentSpec" }
%"alloc::vec::Vec<ink_metadata::specs::ConstructorSpec>" = type { { i64, i64* }, i64 }
%"alloc::vec::Vec<ink_metadata::specs::MessageSpec>" = type { { i64, i64* }, i64 }
%"alloc::vec::Vec<ink_metadata::specs::EventSpec>" = type { { i64, i64* }, i64 }
%"ink_metadata::specs::EnvironmentSpec" = type { i64, %"ink_metadata::specs::TypeSpec", %"ink_metadata::specs::TypeSpec", %"ink_metadata::specs::TypeSpec", %"ink_metadata::specs::TypeSpec", %"ink_metadata::specs::TypeSpec", %"ink_metadata::specs::TypeSpec" }
%"alloc::collections::btree::map::BTreeMap<scale_info::interner::UntrackedSymbol<core::any::TypeId>, scale_info::ty::Type<scale_info::form::PortableForm>>" = type { %"core::mem::manually_drop::ManuallyDrop<alloc::alloc::Global>", %"core::marker::PhantomData<alloc::boxed::Box<(scale_info::interner::UntrackedSymbol<core::any::TypeId>, scale_info::ty::Type<scale_info::form::PortableForm>)>>", { i64, i64* }, i64 }
%"core::mem::manually_drop::ManuallyDrop<alloc::alloc::Global>" = type { %"alloc::alloc::Global" }
%"core::marker::PhantomData<alloc::boxed::Box<(scale_info::interner::UntrackedSymbol<core::any::TypeId>, scale_info::ty::Type<scale_info::form::PortableForm>)>>" = type {}
%"alloc::collections::btree::node::Handle<alloc::collections::btree::node::NodeRef<alloc::collections::btree::node::marker::Dying, scale_info::interner::UntrackedSymbol<core::any::TypeId>, scale_info::ty::Type<scale_info::form::PortableForm>, alloc::collections::btree::node::marker::LeafOrInternal>, alloc::collections::btree::node::marker::KV>" = type { %"core::marker::PhantomData<alloc::collections::btree::node::marker::KV>", { i64, i64* }, i64 }
%"core::marker::PhantomData<alloc::collections::btree::node::marker::KV>" = type {}
%"core::option::Option<alloc::collections::btree::node::Handle<alloc::collections::btree::node::NodeRef<alloc::collections::btree::node::marker::Dying, scale_info::interner::UntrackedSymbol<core::any::TypeId>, scale_info::ty::Type<scale_info::form::PortableForm>, alloc::collections::btree::node::marker::LeafOrInternal>, alloc::collections::btree::node::marker::KV>>" = type { [1 x i64], {}*, [1 x i64] }
%"alloc::collections::btree::map::IntoIter<scale_info::interner::UntrackedSymbol<core::any::TypeId>, scale_info::ty::Type<scale_info::form::PortableForm>>" = type { %"alloc::alloc::Global", %"alloc::collections::btree::navigate::LazyLeafRange<alloc::collections::btree::node::marker::Dying, scale_info::interner::UntrackedSymbol<core::any::TypeId>, scale_info::ty::Type<scale_info::form::PortableForm>>", i64 }
%"alloc::collections::btree::navigate::LazyLeafRange<alloc::collections::btree::node::marker::Dying, scale_info::interner::UntrackedSymbol<core::any::TypeId>, scale_info::ty::Type<scale_info::form::PortableForm>>" = type { %"core::option::Option<alloc::collections::btree::navigate::LazyLeafHandle<alloc::collections::btree::node::marker::Dying, scale_info::interner::UntrackedSymbol<core::any::TypeId>, scale_info::ty::Type<scale_info::form::PortableForm>>>", %"core::option::Option<alloc::collections::btree::navigate::LazyLeafHandle<alloc::collections::btree::node::marker::Dying, scale_info::interner::UntrackedSymbol<core::any::TypeId>, scale_info::ty::Type<scale_info::form::PortableForm>>>" }
%"core::option::Option<alloc::collections::btree::navigate::LazyLeafHandle<alloc::collections::btree::node::marker::Dying, scale_info::interner::UntrackedSymbol<core::any::TypeId>, scale_info::ty::Type<scale_info::form::PortableForm>>>" = type { i64, [3 x i64] }
%"core::option::Option<alloc::collections::btree::node::Handle<alloc::collections::btree::node::NodeRef<alloc::collections::btree::node::marker::Dying, ink_metadata::layout::Discriminant, ink_metadata::layout::StructLayout, alloc::collections::btree::node::marker::LeafOrInternal>, alloc::collections::btree::node::marker::KV>>" = type { [1 x i64], {}*, [1 x i64] }
%"alloc::collections::btree::map::IntoIter<ink_metadata::layout::Discriminant, ink_metadata::layout::StructLayout>" = type { %"alloc::alloc::Global", %"alloc::collections::btree::navigate::LazyLeafRange<alloc::collections::btree::node::marker::Dying, ink_metadata::layout::Discriminant, ink_metadata::layout::StructLayout>", i64 }
%"alloc::collections::btree::navigate::LazyLeafRange<alloc::collections::btree::node::marker::Dying, ink_metadata::layout::Discriminant, ink_metadata::layout::StructLayout>" = type { %"core::option::Option<alloc::collections::btree::navigate::LazyLeafHandle<alloc::collections::btree::node::marker::Dying, ink_metadata::layout::Discriminant, ink_metadata::layout::StructLayout>>", %"core::option::Option<alloc::collections::btree::navigate::LazyLeafHandle<alloc::collections::btree::node::marker::Dying, ink_metadata::layout::Discriminant, ink_metadata::layout::StructLayout>>" }
%"core::option::Option<alloc::collections::btree::navigate::LazyLeafHandle<alloc::collections::btree::node::marker::Dying, ink_metadata::layout::Discriminant, ink_metadata::layout::StructLayout>>" = type { i64, [3 x i64] }
%"alloc::collections::btree::node::LeafNode<ink_metadata::layout::Discriminant, ink_metadata::layout::StructLayout>" = type { i64*, [11 x i64], [11 x %"core::mem::maybe_uninit::MaybeUninit<ink_metadata::layout::StructLayout>"], i16, i16, [2 x i16] }
%"core::mem::maybe_uninit::MaybeUninit<ink_metadata::layout::StructLayout>" = type { [5 x i64] }
%"ink_metadata::specs::ConstructorSpecBuilder<scale_info::form::MetaForm, ink_metadata::specs::state::Selector, ink_metadata::specs::state::IsPayable, ink_metadata::specs::Missing<ink_metadata::specs::state::Returns>>" = type { %"core::marker::PhantomData<fn() -> (ink_metadata::specs::state::Selector, ink_metadata::specs::state::IsPayable, ink_metadata::specs::Missing<ink_metadata::specs::state::Returns>)>", %"ink_metadata::specs::ConstructorSpec" }
%"core::marker::PhantomData<fn() -> (ink_metadata::specs::state::Selector, ink_metadata::specs::state::IsPayable, ink_metadata::specs::Missing<ink_metadata::specs::state::Returns>)>" = type {}
%"core::option::Option<alloc::collections::btree::node::Handle<alloc::collections::btree::node::NodeRef<alloc::collections::btree::node::marker::Dying, ink_metadata::layout::Discriminant, ink_metadata::layout::StructLayout<scale_info::form::PortableForm>, alloc::collections::btree::node::marker::LeafOrInternal>, alloc::collections::btree::node::marker::KV>>" = type { [1 x i64], {}*, [1 x i64] }
%"alloc::collections::btree::map::IntoIter<ink_metadata::layout::Discriminant, ink_metadata::layout::StructLayout<scale_info::form::PortableForm>>" = type { %"alloc::alloc::Global", %"alloc::collections::btree::navigate::LazyLeafRange<alloc::collections::btree::node::marker::Dying, ink_metadata::layout::Discriminant, ink_metadata::layout::StructLayout<scale_info::form::PortableForm>>", i64 }
%"alloc::collections::btree::navigate::LazyLeafRange<alloc::collections::btree::node::marker::Dying, ink_metadata::layout::Discriminant, ink_metadata::layout::StructLayout<scale_info::form::PortableForm>>" = type { %"core::option::Option<alloc::collections::btree::navigate::LazyLeafHandle<alloc::collections::btree::node::marker::Dying, ink_metadata::layout::Discriminant, ink_metadata::layout::StructLayout<scale_info::form::PortableForm>>>", %"core::option::Option<alloc::collections::btree::navigate::LazyLeafHandle<alloc::collections::btree::node::marker::Dying, ink_metadata::layout::Discriminant, ink_metadata::layout::StructLayout<scale_info::form::PortableForm>>>" }
%"core::option::Option<alloc::collections::btree::navigate::LazyLeafHandle<alloc::collections::btree::node::marker::Dying, ink_metadata::layout::Discriminant, ink_metadata::layout::StructLayout<scale_info::form::PortableForm>>>" = type { i64, [3 x i64] }
%"alloc::collections::btree::node::LeafNode<ink_metadata::layout::Discriminant, ink_metadata::layout::StructLayout<scale_info::form::PortableForm>>" = type { [11 x %"core::mem::maybe_uninit::MaybeUninit<ink_metadata::layout::StructLayout<scale_info::form::PortableForm>>"], i64*, [11 x i64], i16, i16, [2 x i16] }
%"core::mem::maybe_uninit::MaybeUninit<ink_metadata::layout::StructLayout<scale_info::form::PortableForm>>" = type { [6 x i64] }
%"ink_metadata::layout::FieldLayout<scale_info::form::PortableForm>" = type { %"alloc::string::String", %"ink_metadata::layout::Layout<scale_info::form::PortableForm>" }
%"ink_metadata::layout::Layout<scale_info::form::PortableForm>" = type { [56 x i8], i8, [15 x i8] }
%"ink_metadata::specs::MessageSpecBuilder<scale_info::form::MetaForm, ink_metadata::specs::state::Selector, ink_metadata::specs::Missing<ink_metadata::specs::state::Mutates>, ink_metadata::specs::Missing<ink_metadata::specs::state::IsPayable>, ink_metadata::specs::Missing<ink_metadata::specs::state::Returns>>" = type { %"core::marker::PhantomData<fn() -> (ink_metadata::specs::state::Selector, ink_metadata::specs::Missing<ink_metadata::specs::state::Mutates>, ink_metadata::specs::Missing<ink_metadata::specs::state::IsPayable>, ink_metadata::specs::Missing<ink_metadata::specs::state::Returns>)>", %"ink_metadata::specs::MessageSpec" }
%"core::marker::PhantomData<fn() -> (ink_metadata::specs::state::Selector, ink_metadata::specs::Missing<ink_metadata::specs::state::Mutates>, ink_metadata::specs::Missing<ink_metadata::specs::state::IsPayable>, ink_metadata::specs::Missing<ink_metadata::specs::state::Returns>)>" = type {}
%"ink_metadata::specs::MessageSpec" = type { { [0 x i8]*, i64 }, %"ink_metadata::specs::ReturnTypeSpec", %"alloc::vec::Vec<ink_metadata::specs::MessageParamSpec>", %"alloc::vec::Vec<&str>", %"ink_metadata::specs::Selector", i8, i8, i8, [1 x i8] }
%"ink_metadata::specs::EnvironmentSpecBuilder<scale_info::form::MetaForm, ink_metadata::specs::state::AccountId, ink_metadata::specs::state::Balance, ink_metadata::specs::state::Hash, ink_metadata::specs::state::Timestamp, ink_metadata::specs::state::BlockNumber, ink_metadata::specs::Missing<ink_metadata::specs::state::ChainExtension>, ink_metadata::specs::Missing<ink_metadata::specs::state::MaxEventTopics>>" = type { %"core::marker::PhantomData<fn() -> (ink_metadata::specs::state::AccountId, ink_metadata::specs::state::Balance, ink_metadata::specs::state::Hash, ink_metadata::specs::state::Timestamp, ink_metadata::specs::state::BlockNumber, ink_metadata::specs::Missing<ink_metadata::specs::state::ChainExtension>, ink_metadata::specs::Missing<ink_metadata::specs::state::MaxEventTopics>)>", %"ink_metadata::specs::EnvironmentSpec" }
%"core::marker::PhantomData<fn() -> (ink_metadata::specs::state::AccountId, ink_metadata::specs::state::Balance, ink_metadata::specs::state::Hash, ink_metadata::specs::state::Timestamp, ink_metadata::specs::state::BlockNumber, ink_metadata::specs::Missing<ink_metadata::specs::state::ChainExtension>, ink_metadata::specs::Missing<ink_metadata::specs::state::MaxEventTopics>)>" = type {}
%"ink_metadata::specs::EventSpec" = type { { [0 x i8]*, i64 }, %"alloc::vec::Vec<ink_metadata::specs::EventParamSpec>", %"alloc::vec::Vec<&str>" }
%"alloc::vec::Vec<ink_metadata::specs::EventParamSpec>" = type { { i64, i64* }, i64 }
%"ink_metadata::specs::EventParamSpec" = type { { [0 x i8]*, i64 }, %"ink_metadata::specs::TypeSpec", %"alloc::vec::Vec<&str>", i8, [7 x i8] }
%"scale_info::registry::Registry" = type { %"scale_info::interner::Interner<core::any::TypeId>", %"alloc::collections::btree::map::BTreeMap<scale_info::interner::UntrackedSymbol<core::any::TypeId>, scale_info::ty::Type<scale_info::form::PortableForm>>" }
%"scale_info::interner::Interner<core::any::TypeId>" = type { %"alloc::collections::btree::map::BTreeMap<core::any::TypeId, usize>", %"alloc::vec::Vec<core::any::TypeId>" }
%"alloc::collections::btree::map::BTreeMap<core::any::TypeId, usize>" = type { %"core::mem::manually_drop::ManuallyDrop<alloc::alloc::Global>", %"core::marker::PhantomData<alloc::boxed::Box<(core::any::TypeId, usize)>>", { i64, i64* }, i64 }
%"core::marker::PhantomData<alloc::boxed::Box<(core::any::TypeId, usize)>>" = type {}
%"alloc::vec::Vec<core::any::TypeId>" = type { { i64, i64* }, i64 }
%"core::option::Option<alloc::collections::btree::node::Handle<alloc::collections::btree::node::NodeRef<alloc::collections::btree::node::marker::Dying, core::any::TypeId, usize, alloc::collections::btree::node::marker::LeafOrInternal>, alloc::collections::btree::node::marker::KV>>" = type { [1 x i64], {}*, [1 x i64] }
%"alloc::collections::btree::map::IntoIter<core::any::TypeId, usize>" = type { %"alloc::alloc::Global", %"alloc::collections::btree::navigate::LazyLeafRange<alloc::collections::btree::node::marker::Dying, core::any::TypeId, usize>", i64 }
%"alloc::collections::btree::navigate::LazyLeafRange<alloc::collections::btree::node::marker::Dying, core::any::TypeId, usize>" = type { %"core::option::Option<alloc::collections::btree::navigate::LazyLeafHandle<alloc::collections::btree::node::marker::Dying, core::any::TypeId, usize>>", %"core::option::Option<alloc::collections::btree::navigate::LazyLeafHandle<alloc::collections::btree::node::marker::Dying, core::any::TypeId, usize>>" }
%"core::option::Option<alloc::collections::btree::navigate::LazyLeafHandle<alloc::collections::btree::node::marker::Dying, core::any::TypeId, usize>>" = type { i64, [3 x i64] }
%"ink_metadata::specs::MessageParamSpec" = type { { [0 x i8]*, i64 }, %"ink_metadata::specs::TypeSpec" }
%"ink_metadata::layout::MetadataError::Collision" = type { %"alloc::string::String", %"alloc::string::String" }
%"alloc::collections::btree::mem::replace::PanicGuard" = type {}
%"scale_info::ty::variant::Variant<scale_info::form::PortableForm>" = type { %"alloc::string::String", %"alloc::vec::Vec<scale_info::ty::fields::Field<scale_info::form::PortableForm>>", %"alloc::vec::Vec<alloc::string::String>", i8, [7 x i8] }
%"ink_metadata::specs::ContractSpec<scale_info::form::PortableForm>" = type { %"ink_metadata::specs::TypeSpec<scale_info::form::PortableForm>", %"alloc::vec::Vec<ink_metadata::specs::ConstructorSpec<scale_info::form::PortableForm>>", %"alloc::vec::Vec<ink_metadata::specs::MessageSpec<scale_info::form::PortableForm>>", %"alloc::vec::Vec<ink_metadata::specs::EventSpec<scale_info::form::PortableForm>>", %"alloc::vec::Vec<alloc::string::String>", %"ink_metadata::specs::EnvironmentSpec<scale_info::form::PortableForm>" }
%"alloc::vec::Vec<ink_metadata::specs::ConstructorSpec<scale_info::form::PortableForm>>" = type { { i64, i64* }, i64 }
%"ink_metadata::specs::EnvironmentSpec<scale_info::form::PortableForm>" = type { %"ink_metadata::specs::TypeSpec<scale_info::form::PortableForm>", %"ink_metadata::specs::TypeSpec<scale_info::form::PortableForm>", %"ink_metadata::specs::TypeSpec<scale_info::form::PortableForm>", %"ink_metadata::specs::TypeSpec<scale_info::form::PortableForm>", %"ink_metadata::specs::TypeSpec<scale_info::form::PortableForm>", %"ink_metadata::specs::TypeSpec<scale_info::form::PortableForm>", i64 }
%"ink_metadata::specs::ConstructorSpec<scale_info::form::PortableForm>" = type { %"ink_metadata::specs::ReturnTypeSpec<scale_info::form::PortableForm>", %"alloc::string::String", %"alloc::vec::Vec<ink_metadata::specs::MessageParamSpec<scale_info::form::PortableForm>>", %"alloc::vec::Vec<alloc::string::String>", %"ink_metadata::specs::Selector", i8, i8, [2 x i8] }
%"core::array::iter::IntoIter<ink_metadata::specs::MessageSpec, 3>" = type { [3 x %"core::mem::maybe_uninit::MaybeUninit<ink_metadata::specs::MessageSpec>"], { i64, i64 } }
%"core::mem::maybe_uninit::MaybeUninit<ink_metadata::specs::MessageSpec>" = type { [14 x i64] }
%"core::option::Option<(usize, usize)>" = type { i64, [2 x i64] }
%"core::str::pattern::TwoWaySearcher" = type { i64, i64, i64, i64, i64, i64, i64, i64 }
%"alloc::collections::btree::node::InternalNode<ink_metadata::layout::Discriminant, ink_metadata::layout::StructLayout>" = type { %"alloc::collections::btree::node::LeafNode<ink_metadata::layout::Discriminant, ink_metadata::layout::StructLayout>", [12 x i8*] }
%"alloc::collections::btree::node::InternalNode<ink_metadata::layout::Discriminant, ink_metadata::layout::StructLayout<scale_info::form::PortableForm>>" = type { %"alloc::collections::btree::node::LeafNode<ink_metadata::layout::Discriminant, ink_metadata::layout::StructLayout<scale_info::form::PortableForm>>", [12 x i8*] }
%"alloc::collections::btree::node::LeafNode<core::any::TypeId, usize>" = type { i64*, [11 x i64], [11 x i64], i16, i16, [2 x i16] }
%"alloc::collections::btree::node::InternalNode<core::any::TypeId, usize>" = type { %"alloc::collections::btree::node::LeafNode<core::any::TypeId, usize>", [12 x i8*] }
%"alloc::collections::btree::node::LeafNode<scale_info::interner::UntrackedSymbol<core::any::TypeId>, scale_info::ty::Type<scale_info::form::PortableForm>>" = type { i64*, [11 x %"core::mem::maybe_uninit::MaybeUninit<scale_info::ty::Type<scale_info::form::PortableForm>>"], [11 x i32], i16, i16 }
%"core::mem::maybe_uninit::MaybeUninit<scale_info::ty::Type<scale_info::form::PortableForm>>" = type { [13 x i64] }
%"alloc::collections::btree::node::InternalNode<scale_info::interner::UntrackedSymbol<core::any::TypeId>, scale_info::ty::Type<scale_info::form::PortableForm>>" = type { %"alloc::collections::btree::node::LeafNode<scale_info::interner::UntrackedSymbol<core::any::TypeId>, scale_info::ty::Type<scale_info::form::PortableForm>>", [12 x i8*] }
%"scale_info::ty::TypeParameter<scale_info::form::PortableForm>" = type { %"alloc::string::String", { i32, i32 } }
%"core::result::Result<core::ptr::non_null::NonNull<[u8]>, alloc::collections::TryReserveError>" = type { i64, [2 x i64] }
%"core::option::Option<(core::ptr::non_null::NonNull<u8>, core::alloc::layout::Layout)>" = type { [2 x i64], i64 }
%"core::result::Result<usize, std::io::error::Error>" = type { i64, [1 x i64] }
%"core::cell::BorrowMutError" = type {}
%"core::str::pattern::EmptyNeedle" = type { i64, i64, i8, i8, i8, [5 x i8] }
%"ink::reflect::dispatch::ConstructorOutputValue<flashloan0::Flashloan0>" = type { %"flashloan0::Flashloan0" }
%"core::mem::manually_drop::ManuallyDrop<flashloan0::Flashloan0>" = type { %"flashloan0::Flashloan0" }
%"flashloan0::Flashloan0Ref" = type { %"flashloan0::_::CallBuilder" }
%"ink_metadata::InkProject" = type { %"ink_metadata::MetadataVersion::V4", %"scale_info::portable::PortableRegistry", %"ink_metadata::specs::ContractSpec<scale_info::form::PortableForm>", %"ink_metadata::layout::Layout<scale_info::form::PortableForm>" }
%"ink_metadata::MetadataVersion::V4" = type {}
%"scale_info::portable::PortableRegistry" = type { %"alloc::vec::Vec<scale_info::portable::PortableType>" }
%"alloc::vec::Vec<scale_info::portable::PortableType>" = type { { i64, i64* }, i64 }
%"ink_metadata::specs::EnvironmentSpecBuilder<scale_info::form::MetaForm, ink_metadata::specs::Missing<ink_metadata::specs::state::AccountId>, ink_metadata::specs::Missing<ink_metadata::specs::state::Balance>, ink_metadata::specs::Missing<ink_metadata::specs::state::Hash>, ink_metadata::specs::Missing<ink_metadata::specs::state::Timestamp>, ink_metadata::specs::Missing<ink_metadata::specs::state::BlockNumber>, ink_metadata::specs::Missing<ink_metadata::specs::state::ChainExtension>, ink_metadata::specs::Missing<ink_metadata::specs::state::MaxEventTopics>>" = type { %"core::marker::PhantomData<fn() -> (ink_metadata::specs::Missing<ink_metadata::specs::state::AccountId>, ink_metadata::specs::Missing<ink_metadata::specs::state::Balance>, ink_metadata::specs::Missing<ink_metadata::specs::state::Hash>, ink_metadata::specs::Missing<ink_metadata::specs::state::Timestamp>, ink_metadata::specs::Missing<ink_metadata::specs::state::BlockNumber>, ink_metadata::specs::Missing<ink_metadata::specs::state::ChainExtension>, ink_metadata::specs::Missing<ink_metadata::specs::state::MaxEventTopics>)>", %"ink_metadata::specs::EnvironmentSpec" }
%"core::marker::PhantomData<fn() -> (ink_metadata::specs::Missing<ink_metadata::specs::state::AccountId>, ink_metadata::specs::Missing<ink_metadata::specs::state::Balance>, ink_metadata::specs::Missing<ink_metadata::specs::state::Hash>, ink_metadata::specs::Missing<ink_metadata::specs::state::Timestamp>, ink_metadata::specs::Missing<ink_metadata::specs::state::BlockNumber>, ink_metadata::specs::Missing<ink_metadata::specs::state::ChainExtension>, ink_metadata::specs::Missing<ink_metadata::specs::state::MaxEventTopics>)>" = type {}
%"ink_metadata::specs::EnvironmentSpecBuilder<scale_info::form::MetaForm, ink_metadata::specs::state::AccountId, ink_metadata::specs::Missing<ink_metadata::specs::state::Balance>, ink_metadata::specs::Missing<ink_metadata::specs::state::Hash>, ink_metadata::specs::Missing<ink_metadata::specs::state::Timestamp>, ink_metadata::specs::Missing<ink_metadata::specs::state::BlockNumber>, ink_metadata::specs::Missing<ink_metadata::specs::state::ChainExtension>, ink_metadata::specs::Missing<ink_metadata::specs::state::MaxEventTopics>>" = type { %"core::marker::PhantomData<fn() -> (ink_metadata::specs::state::AccountId, ink_metadata::specs::Missing<ink_metadata::specs::state::Balance>, ink_metadata::specs::Missing<ink_metadata::specs::state::Hash>, ink_metadata::specs::Missing<ink_metadata::specs::state::Timestamp>, ink_metadata::specs::Missing<ink_metadata::specs::state::BlockNumber>, ink_metadata::specs::Missing<ink_metadata::specs::state::ChainExtension>, ink_metadata::specs::Missing<ink_metadata::specs::state::MaxEventTopics>)>", %"ink_metadata::specs::EnvironmentSpec" }
%"core::marker::PhantomData<fn() -> (ink_metadata::specs::state::AccountId, ink_metadata::specs::Missing<ink_metadata::specs::state::Balance>, ink_metadata::specs::Missing<ink_metadata::specs::state::Hash>, ink_metadata::specs::Missing<ink_metadata::specs::state::Timestamp>, ink_metadata::specs::Missing<ink_metadata::specs::state::BlockNumber>, ink_metadata::specs::Missing<ink_metadata::specs::state::ChainExtension>, ink_metadata::specs::Missing<ink_metadata::specs::state::MaxEventTopics>)>" = type {}
%"ink_metadata::specs::EnvironmentSpecBuilder<scale_info::form::MetaForm, ink_metadata::specs::state::AccountId, ink_metadata::specs::state::Balance, ink_metadata::specs::Missing<ink_metadata::specs::state::Hash>, ink_metadata::specs::Missing<ink_metadata::specs::state::Timestamp>, ink_metadata::specs::Missing<ink_metadata::specs::state::BlockNumber>, ink_metadata::specs::Missing<ink_metadata::specs::state::ChainExtension>, ink_metadata::specs::Missing<ink_metadata::specs::state::MaxEventTopics>>" = type { %"core::marker::PhantomData<fn() -> (ink_metadata::specs::state::AccountId, ink_metadata::specs::state::Balance, ink_metadata::specs::Missing<ink_metadata::specs::state::Hash>, ink_metadata::specs::Missing<ink_metadata::specs::state::Timestamp>, ink_metadata::specs::Missing<ink_metadata::specs::state::BlockNumber>, ink_metadata::specs::Missing<ink_metadata::specs::state::ChainExtension>, ink_metadata::specs::Missing<ink_metadata::specs::state::MaxEventTopics>)>", %"ink_metadata::specs::EnvironmentSpec" }
%"core::marker::PhantomData<fn() -> (ink_metadata::specs::state::AccountId, ink_metadata::specs::state::Balance, ink_metadata::specs::Missing<ink_metadata::specs::state::Hash>, ink_metadata::specs::Missing<ink_metadata::specs::state::Timestamp>, ink_metadata::specs::Missing<ink_metadata::specs::state::BlockNumber>, ink_metadata::specs::Missing<ink_metadata::specs::state::ChainExtension>, ink_metadata::specs::Missing<ink_metadata::specs::state::MaxEventTopics>)>" = type {}
%"ink_metadata::specs::EnvironmentSpecBuilder<scale_info::form::MetaForm, ink_metadata::specs::state::AccountId, ink_metadata::specs::state::Balance, ink_metadata::specs::state::Hash, ink_metadata::specs::Missing<ink_metadata::specs::state::Timestamp>, ink_metadata::specs::Missing<ink_metadata::specs::state::BlockNumber>, ink_metadata::specs::Missing<ink_metadata::specs::state::ChainExtension>, ink_metadata::specs::Missing<ink_metadata::specs::state::MaxEventTopics>>" = type { %"core::marker::PhantomData<fn() -> (ink_metadata::specs::state::AccountId, ink_metadata::specs::state::Balance, ink_metadata::specs::state::Hash, ink_metadata::specs::Missing<ink_metadata::specs::state::Timestamp>, ink_metadata::specs::Missing<ink_metadata::specs::state::BlockNumber>, ink_metadata::specs::Missing<ink_metadata::specs::state::ChainExtension>, ink_metadata::specs::Missing<ink_metadata::specs::state::MaxEventTopics>)>", %"ink_metadata::specs::EnvironmentSpec" }
%"core::marker::PhantomData<fn() -> (ink_metadata::specs::state::AccountId, ink_metadata::specs::state::Balance, ink_metadata::specs::state::Hash, ink_metadata::specs::Missing<ink_metadata::specs::state::Timestamp>, ink_metadata::specs::Missing<ink_metadata::specs::state::BlockNumber>, ink_metadata::specs::Missing<ink_metadata::specs::state::ChainExtension>, ink_metadata::specs::Missing<ink_metadata::specs::state::MaxEventTopics>)>" = type {}
%"ink_metadata::specs::EnvironmentSpecBuilder<scale_info::form::MetaForm, ink_metadata::specs::state::AccountId, ink_metadata::specs::state::Balance, ink_metadata::specs::state::Hash, ink_metadata::specs::state::Timestamp, ink_metadata::specs::Missing<ink_metadata::specs::state::BlockNumber>, ink_metadata::specs::Missing<ink_metadata::specs::state::ChainExtension>, ink_metadata::specs::Missing<ink_metadata::specs::state::MaxEventTopics>>" = type { %"core::marker::PhantomData<fn() -> (ink_metadata::specs::state::AccountId, ink_metadata::specs::state::Balance, ink_metadata::specs::state::Hash, ink_metadata::specs::state::Timestamp, ink_metadata::specs::Missing<ink_metadata::specs::state::BlockNumber>, ink_metadata::specs::Missing<ink_metadata::specs::state::ChainExtension>, ink_metadata::specs::Missing<ink_metadata::specs::state::MaxEventTopics>)>", %"ink_metadata::specs::EnvironmentSpec" }
%"core::marker::PhantomData<fn() -> (ink_metadata::specs::state::AccountId, ink_metadata::specs::state::Balance, ink_metadata::specs::state::Hash, ink_metadata::specs::state::Timestamp, ink_metadata::specs::Missing<ink_metadata::specs::state::BlockNumber>, ink_metadata::specs::Missing<ink_metadata::specs::state::ChainExtension>, ink_metadata::specs::Missing<ink_metadata::specs::state::MaxEventTopics>)>" = type {}
%"ink_metadata::specs::ContractSpecBuilder<scale_info::form::MetaForm>" = type { %"core::marker::PhantomData<fn() -> ink_metadata::specs::Invalid>", %"ink_metadata::specs::ContractSpec" }
%"core::marker::PhantomData<fn() -> ink_metadata::specs::Invalid>" = type {}
%"core::result::Result<(), ink_metadata::layout::MetadataError>" = type { [1 x i64], {}*, [4 x i64] }
%"unwind::libunwind::_Unwind_Exception" = type { i64, void (i32, %"unwind::libunwind::_Unwind_Exception"*)*, [2 x i64] }
%"unwind::libunwind::_Unwind_Context" = type { [0 x i8] }

@0 = private unnamed_addr constant <{ [16 x i8] }> <{ [16 x i8] c"\00\00\00\00\00\00\00\00\08\00\00\00\00\00\00\00" }>, align 8
@alloc1340 = private unnamed_addr constant <{ [17 x i8] }> <{ [17 x i8] c"Path not assigned" }>, align 1
@alloc1346 = private unnamed_addr constant <{ [90 x i8] }> <{ [90 x i8] c"/home/ubuntu/.cargo/registry/src/github.com-1ecc6299db9ec823/scale-info-2.6.0/src/build.rs" }>, align 1
@alloc1339 = private unnamed_addr constant <{ i8*, [16 x i8] }> <{ i8* getelementptr inbounds (<{ [90 x i8] }>, <{ [90 x i8] }>* @alloc1346, i32 0, i32 0, i32 0), [16 x i8] c"Z\00\00\00\00\00\00\00\C1\00\00\00\1E\00\00\00" }>, align 8
@alloc1345 = private unnamed_addr constant <{ [39 x i8] }> <{ [39 x i8] c"Index should be assigned by the builder" }>, align 1
@alloc1347 = private unnamed_addr constant <{ i8*, [16 x i8] }> <{ i8* getelementptr inbounds (<{ [90 x i8] }>, <{ [90 x i8] }>* @alloc1346, i32 0, i32 0, i32 0), [16 x i8] c"Z\00\00\00\00\00\00\00\C4\02\00\00\18\00\00\00" }>, align 8
@alloc1353 = private unnamed_addr constant <{ [6 x i8] }> <{ [6 x i8] c"Result" }>, align 1
@alloc1354 = private unnamed_addr constant <{ [1 x i8] }> <{ [1 x i8] c"T" }>, align 1
@alloc1355 = private unnamed_addr constant <{ [1 x i8] }> <{ [1 x i8] c"E" }>, align 1
@alloc1356 = private unnamed_addr constant <{ [2 x i8] }> <{ [2 x i8] c"Ok" }>, align 1
@alloc1357 = private unnamed_addr constant <{ [3 x i8] }> <{ [3 x i8] c"Err" }>, align 1
@alloc1360 = private unnamed_addr constant <{ [11 x i8] }> <{ [11 x i8] c"PhantomData" }>, align 1
@alloc504 = private unnamed_addr constant <{}> zeroinitializer, align 8
@alloc1363 = private unnamed_addr constant <{ [7 x i8] }> <{ [7 x i8] c"Mapping" }>, align 1
@alloc1364 = private unnamed_addr constant <{ [26 x i8] }> <{ [26 x i8] c"ink_storage::lazy::mapping" }>, align 1
@alloc1365 = private unnamed_addr constant <{ [1 x i8] }> <{ [1 x i8] c"K" }>, align 1
@alloc1366 = private unnamed_addr constant <{ [1 x i8] }> <{ [1 x i8] c"V" }>, align 1
@alloc1367 = private unnamed_addr constant <{ [7 x i8] }> <{ [7 x i8] c"KeyType" }>, align 1
@alloc1368 = private unnamed_addr constant <{ [7 x i8] }> <{ [7 x i8] c"_marker" }>, align 1
@alloc1369 = private unnamed_addr constant <{ [35 x i8] }> <{ [35 x i8] c"PhantomData<fn() ->(K, V, KeyType)>" }>, align 1
@alloc1125 = private unnamed_addr constant <{ [4 x i8] }> <{ [4 x i8] c"\85e\95b" }>, align 4
@alloc1122 = private unnamed_addr constant <{ [32 x i8] }> <{ [32 x i8] c"Failed to get value in Mapping: " }>, align 1
@alloc1123 = private unnamed_addr constant <{ i8*, [8 x i8] }> <{ i8* getelementptr inbounds (<{ [32 x i8] }>, <{ [32 x i8] }>* @alloc1122, i32 0, i32 0, i32 0), [8 x i8] c" \00\00\00\00\00\00\00" }>, align 8
@alloc1370 = private unnamed_addr constant <{ [98 x i8] }> <{ [98 x i8] c"/home/ubuntu/.cargo/registry/src/github.com-1ecc6299db9ec823/ink_storage-4.2.0/src/lazy/mapping.rs" }>, align 1
@alloc1371 = private unnamed_addr constant <{ i8*, [16 x i8] }> <{ i8* getelementptr inbounds (<{ [98 x i8] }>, <{ [98 x i8] }>* @alloc1370, i32 0, i32 0, i32 0), [16 x i8] c"b\00\00\00\00\00\00\00\9C\00\00\00%\00\00\00" }>, align 8
@alloc902 = private unnamed_addr constant <{ [34 x i8] }> <{ [34 x i8] c"must have at least one constructor" }>, align 1
@alloc903 = private unnamed_addr constant <{ i8*, [8 x i8] }> <{ i8* getelementptr inbounds (<{ [34 x i8] }>, <{ [34 x i8] }>* @alloc902, i32 0, i32 0, i32 0), [8 x i8] c"\22\00\00\00\00\00\00\00" }>, align 8
@alloc1381 = private unnamed_addr constant <{ [92 x i8] }> <{ [92 x i8] c"/home/ubuntu/.cargo/registry/src/github.com-1ecc6299db9ec823/ink_metadata-4.2.0/src/specs.rs" }>, align 1
@alloc1373 = private unnamed_addr constant <{ i8*, [16 x i8] }> <{ i8* getelementptr inbounds (<{ [92 x i8] }>, <{ [92 x i8] }>* @alloc1381, i32 0, i32 0, i32 0), [16 x i8] c"\\\00\00\00\00\00\00\00\F9\00\00\00\09\00\00\00" }>, align 8
@alloc907 = private unnamed_addr constant <{ [30 x i8] }> <{ [30 x i8] c"must have at least one message" }>, align 1
@alloc908 = private unnamed_addr constant <{ i8*, [8 x i8] }> <{ i8* getelementptr inbounds (<{ [30 x i8] }>, <{ [30 x i8] }>* @alloc907, i32 0, i32 0, i32 0), [8 x i8] c"\1E\00\00\00\00\00\00\00" }>, align 8
@alloc1375 = private unnamed_addr constant <{ i8*, [16 x i8] }> <{ i8* getelementptr inbounds (<{ [92 x i8] }>, <{ [92 x i8] }>* @alloc1381, i32 0, i32 0, i32 0), [16 x i8] c"\\\00\00\00\00\00\00\00\FD\00\00\00\09\00\00\00" }>, align 8
@alloc912 = private unnamed_addr constant <{ [39 x i8] }> <{ [39 x i8] c"only one default constructor is allowed" }>, align 1
@alloc913 = private unnamed_addr constant <{ i8*, [8 x i8] }> <{ i8* getelementptr inbounds (<{ [39 x i8] }>, <{ [39 x i8] }>* @alloc912, i32 0, i32 0, i32 0), [8 x i8] c"'\00\00\00\00\00\00\00" }>, align 8
@alloc1377 = private unnamed_addr constant <{ i8*, [16 x i8] }> <{ i8* getelementptr inbounds (<{ [92 x i8] }>, <{ [92 x i8] }>* @alloc1381, i32 0, i32 0, i32 0), [16 x i8] c"\\\00\00\00\00\00\00\00\01\01\00\00\09\00\00\00" }>, align 8
@alloc917 = private unnamed_addr constant <{ [35 x i8] }> <{ [35 x i8] c"only one default message is allowed" }>, align 1
@alloc918 = private unnamed_addr constant <{ i8*, [8 x i8] }> <{ i8* getelementptr inbounds (<{ [35 x i8] }>, <{ [35 x i8] }>* @alloc917, i32 0, i32 0, i32 0), [8 x i8] c"#\00\00\00\00\00\00\00" }>, align 8
@alloc1379 = private unnamed_addr constant <{ i8*, [16 x i8] }> <{ i8* getelementptr inbounds (<{ [92 x i8] }>, <{ [92 x i8] }>* @alloc1381, i32 0, i32 0, i32 0), [16 x i8] c"\\\00\00\00\00\00\00\00\05\01\00\00\09\00\00\00" }>, align 8
@alloc1380 = private unnamed_addr constant <{ [2 x i8] }> <{ [2 x i8] c"::" }>, align 1
@alloc816 = private unnamed_addr constant <{ [25 x i8] }> <{ [25 x i8] c"display name is invalid: " }>, align 1
@alloc817 = private unnamed_addr constant <{ i8*, [8 x i8] }> <{ i8* getelementptr inbounds (<{ [25 x i8] }>, <{ [25 x i8] }>* @alloc816, i32 0, i32 0, i32 0), [8 x i8] c"\19\00\00\00\00\00\00\00" }>, align 8
@alloc1382 = private unnamed_addr constant <{ i8*, [16 x i8] }> <{ i8* getelementptr inbounds (<{ [92 x i8] }>, <{ [92 x i8] }>* @alloc1381, i32 0, i32 0, i32 0), [16 x i8] c"\\\00\00\00\00\00\00\00Q\04\00\00'\00\00\00" }>, align 8
@alloc1383 = private unnamed_addr constant <{ [30 x i8] }> <{ [30 x i8] c"Could not decode `AccountId.0`" }>, align 1
@alloc1384 = private unnamed_addr constant <{ [11 x i8] }> <{ [11 x i8] c"ResolverKey" }>, align 1
@alloc1390 = private unnamed_addr constant <{ [25 x i8] }> <{ [25 x i8] c"ink_storage_traits::impls" }>, align 1
@alloc1386 = private unnamed_addr constant <{ [1 x i8] }> <{ [1 x i8] c"L" }>, align 1
@alloc1387 = private unnamed_addr constant <{ [1 x i8] }> <{ [1 x i8] c"R" }>, align 1
@alloc1388 = private unnamed_addr constant <{ [26 x i8] }> <{ [26 x i8] c"PhantomData<fn() ->(L, R)>" }>, align 1
@alloc1389 = private unnamed_addr constant <{ [9 x i8] }> <{ [9 x i8] c"ManualKey" }>, align 1
@alloc1391 = private unnamed_addr constant <{ [9 x i8] }> <{ [9 x i8] c"ParentKey" }>, align 1
@alloc1392 = private unnamed_addr constant <{ [30 x i8] }> <{ [30 x i8] c"PhantomData<fn() -> ParentKey>" }>, align 1
@alloc1028 = private unnamed_addr constant <{ [28 x i8] }> <{ [28 x i8] c"failed to write whole buffer" }>, align 1
@alloc1031 = private unnamed_addr constant <{ i8*, [16 x i8] }> <{ i8* getelementptr inbounds (<{ [28 x i8] }>, <{ [28 x i8] }>* @alloc1028, i32 0, i32 0, i32 0), [16 x i8] c"\1C\00\00\00\00\00\00\00\17\00\00\00\00\00\00\00" }>, align 8
@alloc1417 = private unnamed_addr constant <{ [43 x i8] }> <{ [43 x i8] c"/home/ubuntu/rust/library/std/src/io/mod.rs" }>, align 1
@alloc1398 = private unnamed_addr constant <{ i8*, [16 x i8] }> <{ i8* getelementptr inbounds (<{ [43 x i8] }>, <{ [43 x i8] }>* @alloc1417, i32 0, i32 0, i32 0), [16 x i8] c"+\00\00\00\00\00\00\00\0D\06\00\00!\00\00\00" }>, align 8
@vtable.0 = private unnamed_addr constant <{ i8*, [16 x i8], i8*, i8*, i8* }> <{ i8* bitcast (void ({ i8*, i8* }*)* @"_ZN4core3ptr92drop_in_place$LT$std..io..Write..write_fmt..Adapter$LT$std..sys..unix..stdio..Stderr$GT$$GT$17h5eef2984dd6d9cd9E" to i8*), [16 x i8] c"\10\00\00\00\00\00\00\00\08\00\00\00\00\00\00\00", i8* bitcast (i1 ({ i8*, i8* }*, [0 x i8]*, i64)* @"_ZN80_$LT$std..io..Write..write_fmt..Adapter$LT$T$GT$$u20$as$u20$core..fmt..Write$GT$9write_str17h84df57cc7cacf710E" to i8*), i8* bitcast (i1 ({ i8*, i8* }*, i32)* @_ZN4core3fmt5Write10write_char17h4d1501c679c2564cE to i8*), i8* bitcast (i1 ({ i8*, i8* }*, %"core::fmt::Arguments<'_>"*)* @_ZN4core3fmt5Write9write_fmt17h3e3e79f1f86537a5E to i8*) }>, align 8
@alloc1019 = private unnamed_addr constant <{ [15 x i8] }> <{ [15 x i8] c"formatter error" }>, align 1
@alloc1081 = private unnamed_addr constant <{ i8*, [16 x i8] }> <{ i8* getelementptr inbounds (<{ [15 x i8] }>, <{ [15 x i8] }>* @alloc1019, i32 0, i32 0, i32 0), [16 x i8] c"\0F\00\00\00\00\00\00\00(\00\00\00\00\00\00\00" }>, align 8
@alloc1432 = private unnamed_addr constant <{ [70 x i8] }> <{ [70 x i8] c"cannot access a Thread Local Storage value during or after destruction" }>, align 1
@alloc1422 = private unnamed_addr constant <{ [49 x i8] }> <{ [49 x i8] c"/home/ubuntu/rust/library/std/src/thread/local.rs" }>, align 1
@alloc1423 = private unnamed_addr constant <{ i8*, [16 x i8] }> <{ i8* getelementptr inbounds (<{ [49 x i8] }>, <{ [49 x i8] }>* @alloc1422, i32 0, i32 0, i32 0), [16 x i8] c"1\00\00\00\00\00\00\00\A6\01\00\00\1A\00\00\00" }>, align 8
@alloc1003 = private unnamed_addr constant <{ [21 x i8] }> <{ [21 x i8] c"fatal runtime error: " }>, align 1
@alloc1005 = private unnamed_addr constant <{ [1 x i8] }> <{ [1 x i8] c"\0A" }>, align 1
@alloc1004 = private unnamed_addr constant <{ i8*, [8 x i8], i8*, [8 x i8] }> <{ i8* getelementptr inbounds (<{ [21 x i8] }>, <{ [21 x i8] }>* @alloc1003, i32 0, i32 0, i32 0), [8 x i8] c"\15\00\00\00\00\00\00\00", i8* getelementptr inbounds (<{ [1 x i8] }>, <{ [1 x i8] }>* @alloc1005, i32 0, i32 0, i32 0), [8 x i8] c"\01\00\00\00\00\00\00\00" }>, align 8
@alloc1007 = private unnamed_addr constant <{ [29 x i8] }> <{ [29 x i8] c"thread local panicked on drop" }>, align 1
@alloc1008 = private unnamed_addr constant <{ i8*, [8 x i8] }> <{ i8* getelementptr inbounds (<{ [29 x i8] }>, <{ [29 x i8] }>* @alloc1007, i32 0, i32 0, i32 0), [8 x i8] c"\1D\00\00\00\00\00\00\00" }>, align 8
@vtable.2 = private unnamed_addr constant <{ i8*, [16 x i8], i8*, i8*, i8* }> <{ i8* bitcast (void ({ i8*, i8* }**)* @"_ZN4core3ptr104drop_in_place$LT$$RF$mut$u20$std..io..Write..write_fmt..Adapter$LT$std..sys..unix..stdio..Stderr$GT$$GT$17h516d80bc7fafc6beE" to i8*), [16 x i8] c"\08\00\00\00\00\00\00\00\08\00\00\00\00\00\00\00", i8* bitcast (i1 ({ i8*, i8* }**, [0 x i8]*, i64)* @"_ZN50_$LT$$RF$mut$u20$W$u20$as$u20$core..fmt..Write$GT$9write_str17h402b062072ac6898E" to i8*), i8* bitcast (i1 ({ i8*, i8* }**, i32)* @"_ZN50_$LT$$RF$mut$u20$W$u20$as$u20$core..fmt..Write$GT$10write_char17hd6f34488bcb1384aE" to i8*), i8* bitcast (i1 ({ i8*, i8* }**, %"core::fmt::Arguments<'_>"*)* @"_ZN50_$LT$$RF$mut$u20$W$u20$as$u20$core..fmt..Write$GT$9write_fmt17hf54589407340791fE" to i8*) }>, align 8
@alloc1559 = private unnamed_addr constant <{ [49 x i8] }> <{ [49 x i8] c"/home/ubuntu/rust/library/core/src/str/pattern.rs" }>, align 1
@alloc1463 = private unnamed_addr constant <{ i8*, [16 x i8] }> <{ i8* getelementptr inbounds (<{ [49 x i8] }>, <{ [49 x i8] }>* @alloc1559, i32 0, i32 0, i32 0), [16 x i8] c"1\00\00\00\00\00\00\00\A7\05\00\00!\00\00\00" }>, align 8
@alloc1465 = private unnamed_addr constant <{ i8*, [16 x i8] }> <{ i8* getelementptr inbounds (<{ [49 x i8] }>, <{ [49 x i8] }>* @alloc1559, i32 0, i32 0, i32 0), [16 x i8] c"1\00\00\00\00\00\00\00\B3\05\00\00\14\00\00\00" }>, align 8
@alloc1467 = private unnamed_addr constant <{ i8*, [16 x i8] }> <{ i8* getelementptr inbounds (<{ [49 x i8] }>, <{ [49 x i8] }>* @alloc1559, i32 0, i32 0, i32 0), [16 x i8] c"1\00\00\00\00\00\00\00\B3\05\00\00!\00\00\00" }>, align 8
@vtable.5 = private unnamed_addr constant <{ i8*, [16 x i8], i8* }> <{ i8* bitcast (void ({ i8*, i8* }**)* @"_ZN4core3ptr104drop_in_place$LT$$RF$mut$u20$std..io..Write..write_fmt..Adapter$LT$std..sys..unix..stdio..Stderr$GT$$GT$17h516d80bc7fafc6beE" to i8*), [16 x i8] c"\00\00\00\00\00\00\00\00\01\00\00\00\00\00\00\00", i8* bitcast (i1 (%"std::thread::local::AccessError"*, %"core::fmt::Formatter<'_>"*)* @"_ZN68_$LT$std..thread..local..AccessError$u20$as$u20$core..fmt..Debug$GT$3fmt17h0e75abb273ffca92E" to i8*) }>, align 8
@vtable.6 = private unnamed_addr constant <{ i8*, [16 x i8], i8* }> <{ i8* bitcast (void ({ i8*, i8* }**)* @"_ZN4core3ptr104drop_in_place$LT$$RF$mut$u20$std..io..Write..write_fmt..Adapter$LT$std..sys..unix..stdio..Stderr$GT$$GT$17h516d80bc7fafc6beE" to i8*), [16 x i8] c"\00\00\00\00\00\00\00\00\01\00\00\00\00\00\00\00", i8* bitcast (i1 (%"core::cell::BorrowMutError"*, %"core::fmt::Formatter<'_>"*)* @"_ZN63_$LT$core..cell..BorrowMutError$u20$as$u20$core..fmt..Debug$GT$3fmt17h807274dfaf269d96E" to i8*) }>, align 8
@alloc1515 = private unnamed_addr constant <{ [43 x i8] }> <{ [43 x i8] c"called `Option::unwrap()` on a `None` value" }>, align 1
@alloc1511 = private unnamed_addr constant <{ [65 x i8] }> <{ [65 x i8] c"/home/ubuntu/rust/library/alloc/src/collections/btree/navigate.rs" }>, align 1
@alloc1506 = private unnamed_addr constant <{ i8*, [16 x i8] }> <{ i8* getelementptr inbounds (<{ [65 x i8] }>, <{ [65 x i8] }>* @alloc1511, i32 0, i32 0, i32 0), [16 x i8] c"A\00\00\00\00\00\00\00L\02\00\000\00\00\00" }>, align 8
@alloc1512 = private unnamed_addr constant <{ i8*, [16 x i8] }> <{ i8* getelementptr inbounds (<{ [65 x i8] }>, <{ [65 x i8] }>* @alloc1511, i32 0, i32 0, i32 0), [16 x i8] c"A\00\00\00\00\00\00\00\BA\00\00\00'\00\00\00" }>, align 8
@alloc1085 = private unnamed_addr constant <{ [17 x i8] }> <{ [17 x i8] c"not implemented: " }>, align 1
@alloc1086 = private unnamed_addr constant <{ i8*, [8 x i8] }> <{ i8* getelementptr inbounds (<{ [17 x i8] }>, <{ [17 x i8] }>* @alloc1085, i32 0, i32 0, i32 0), [8 x i8] c"\11\00\00\00\00\00\00\00" }>, align 8
@alloc1151 = private unnamed_addr constant <{ [58 x i8] }> <{ [58 x i8] c"off-chain environment does not support contract invocation" }>, align 1
@alloc1152 = private unnamed_addr constant <{ i8*, [8 x i8] }> <{ i8* getelementptr inbounds (<{ [58 x i8] }>, <{ [58 x i8] }>* @alloc1151, i32 0, i32 0, i32 0), [8 x i8] c":\00\00\00\00\00\00\00" }>, align 8
@alloc1557 = private unnamed_addr constant <{ [104 x i8] }> <{ [104 x i8] c"/home/ubuntu/.cargo/registry/src/github.com-1ecc6299db9ec823/ink_env-4.2.0/src/engine/off_chain/impls.rs" }>, align 1
@alloc1532 = private unnamed_addr constant <{ i8*, [16 x i8] }> <{ i8* getelementptr inbounds (<{ [104 x i8] }>, <{ [104 x i8] }>* @alloc1557, i32 0, i32 0, i32 0), [16 x i8] c"h\00\00\00\00\00\00\00\C2\01\00\00\09\00\00\00" }>, align 8
@alloc1045 = private unnamed_addr constant <{ [45 x i8] }> <{ [45 x i8] c"could not read `transferred_value` property: " }>, align 1
@alloc1046 = private unnamed_addr constant <{ i8*, [8 x i8] }> <{ i8* getelementptr inbounds (<{ [45 x i8] }>, <{ [45 x i8] }>* @alloc1045, i32 0, i32 0, i32 0), [8 x i8] c"-\00\00\00\00\00\00\00" }>, align 8
@alloc1534 = private unnamed_addr constant <{ i8*, [16 x i8] }> <{ i8* getelementptr inbounds (<{ [104 x i8] }>, <{ [104 x i8] }>* @alloc1557, i32 0, i32 0, i32 0), [16 x i8] c"h\00\00\00\00\00\00\00{\01\00\00\11\00\00\00" }>, align 8
@alloc1108 = private unnamed_addr constant <{ [34 x i8] }> <{ [34 x i8] c"could not read `caller` property: " }>, align 1
@alloc1109 = private unnamed_addr constant <{ i8*, [8 x i8] }> <{ i8* getelementptr inbounds (<{ [34 x i8] }>, <{ [34 x i8] }>* @alloc1108, i32 0, i32 0, i32 0), [8 x i8] c"\22\00\00\00\00\00\00\00" }>, align 8
@alloc1536 = private unnamed_addr constant <{ i8*, [16 x i8] }> <{ i8* getelementptr inbounds (<{ [104 x i8] }>, <{ [104 x i8] }>* @alloc1557, i32 0, i32 0, i32 0), [16 x i8] c"h\00\00\00\00\00\00\00u\01\00\00%\00\00\00" }>, align 8
@alloc1088 = private unnamed_addr constant <{ [51 x i8] }> <{ [51 x i8] c"the off-chain env does not implement `return_value`" }>, align 1
@alloc1089 = private unnamed_addr constant <{ i8*, [8 x i8] }> <{ i8* getelementptr inbounds (<{ [51 x i8] }>, <{ [51 x i8] }>* @alloc1088, i32 0, i32 0, i32 0), [8 x i8] c"3\00\00\00\00\00\00\00" }>, align 8
@alloc1540 = private unnamed_addr constant <{ i8*, [16 x i8] }> <{ i8* getelementptr inbounds (<{ [104 x i8] }>, <{ [104 x i8] }>* @alloc1557, i32 0, i32 0, i32 0), [16 x i8] c"h\00\00\00\00\00\00\00\01\01\00\00\09\00\00\00" }>, align 8
@alloc1115 = private unnamed_addr constant <{ [28 x i8] }> <{ [28 x i8] c"encountered unexpected error" }>, align 1
@alloc1116 = private unnamed_addr constant <{ i8*, [8 x i8] }> <{ i8* getelementptr inbounds (<{ [28 x i8] }>, <{ [28 x i8] }>* @alloc1115, i32 0, i32 0, i32 0), [8 x i8] c"\1C\00\00\00\00\00\00\00" }>, align 8
@alloc1554 = private unnamed_addr constant <{ i8*, [16 x i8] }> <{ i8* getelementptr inbounds (<{ [104 x i8] }>, <{ [104 x i8] }>* @alloc1557, i32 0, i32 0, i32 0), [16 x i8] c"h\00\00\00\00\00\00\00\D0\00\00\00\17\00\00\00" }>, align 8
@1 = private unnamed_addr constant <{ [16 x i8] }> <{ [16 x i8] c"\00\00\00\00\00\00\00\00\01\00\00\00\00\00\00\00" }>, align 8
@alloc1560 = private unnamed_addr constant <{ i8*, [16 x i8] }> <{ i8* getelementptr inbounds (<{ [49 x i8] }>, <{ [49 x i8] }>* @alloc1559, i32 0, i32 0, i32 0), [16 x i8] c"1\00\00\00\00\00\00\007\04\00\00\17\00\00\00" }>, align 8
@alloc1572 = private unnamed_addr constant <{ [16 x i8] }> <{ [16 x i8] c"already borrowed" }>, align 1
@alloc1562 = private unnamed_addr constant <{ [102 x i8] }> <{ [102 x i8] c"/home/ubuntu/.cargo/registry/src/github.com-1ecc6299db9ec823/ink_env-4.2.0/src/engine/off_chain/mod.rs" }>, align 1
@alloc1563 = private unnamed_addr constant <{ i8*, [16 x i8] }> <{ i8* getelementptr inbounds (<{ [102 x i8] }>, <{ [102 x i8] }>* @alloc1562, i32 0, i32 0, i32 0), [16 x i8] c"f\00\00\00\00\00\00\001\00\00\002\00\00\00" }>, align 8
@"_ZN87_$LT$ink_env..engine..off_chain..EnvInstance$u20$as$u20$ink_env..engine..OnInstance$GT$11on_instance8INSTANCE7__getit5__KEY17hdea862879346edd9E" = external thread_local global %"std::thread::local::fast::Key<core::cell::RefCell<ink_env::engine::off_chain::EnvInstance>>"
@alloc533 = private unnamed_addr constant <{ [4 x i8] }> zeroinitializer, align 4
@alloc1596 = private unnamed_addr constant <{ [48 x i8] }> <{ [48 x i8] c"/home/ubuntu/Vanguard/ink-vuls/flashloan0/lib.rs" }>, align 1
@alloc1574 = private unnamed_addr constant <{ i8*, [16 x i8] }> <{ i8* getelementptr inbounds (<{ [48 x i8] }>, <{ [48 x i8] }>* @alloc1596, i32 0, i32 0, i32 0), [16 x i8] c"0\00\00\00\00\00\00\00\14\00\00\00\05\00\00\00" }>, align 8
@alloc501 = private unnamed_addr constant <{ [23 x i8] }> <{ [23 x i8] c"storage entry was empty" }>, align 1
@alloc502 = private unnamed_addr constant <{ i8*, [8 x i8] }> <{ i8* getelementptr inbounds (<{ [23 x i8] }>, <{ [23 x i8] }>* @alloc501, i32 0, i32 0, i32 0), [8 x i8] c"\17\00\00\00\00\00\00\00" }>, align 8
@alloc1575 = private unnamed_addr constant <{ [3 x i8] }> <{ [3 x i8] c"new" }>, align 1
@alloc1578 = private unnamed_addr constant <{ [33 x i8] }> <{ [33 x i8] c"ink_primitives::ConstructorResult" }>, align 1
@alloc1577 = private unnamed_addr constant <{ [7 x i8] }> <{ [7 x i8] c"default" }>, align 1
@alloc1579 = private unnamed_addr constant <{ [7 x i8] }> <{ [7 x i8] c"deposit" }>, align 1
@alloc1586 = private unnamed_addr constant <{ [13 x i8] }> <{ [13 x i8] c"MessageResult" }>, align 1
@alloc1589 = private unnamed_addr constant <{ [3 x i8] }> <{ [3 x i8] c"ink" }>, align 1
@alloc1582 = private unnamed_addr constant <{ [8 x i8] }> <{ [8 x i8] c"withdraw" }>, align 1
@alloc1585 = private unnamed_addr constant <{ [11 x i8] }> <{ [11 x i8] c"get_balance" }>, align 1
@alloc1588 = private unnamed_addr constant <{ [9 x i8] }> <{ [9 x i8] c"LangError" }>, align 1
@alloc1607 = private unnamed_addr constant <{ [9 x i8] }> <{ [9 x i8] c"AccountId" }>, align 1
@alloc1591 = private unnamed_addr constant <{ [7 x i8] }> <{ [7 x i8] c"Balance" }>, align 1
@alloc1592 = private unnamed_addr constant <{ [4 x i8] }> <{ [4 x i8] c"Hash" }>, align 1
@alloc1593 = private unnamed_addr constant <{ [9 x i8] }> <{ [9 x i8] c"Timestamp" }>, align 1
@alloc1594 = private unnamed_addr constant <{ [11 x i8] }> <{ [11 x i8] c"BlockNumber" }>, align 1
@alloc1595 = private unnamed_addr constant <{ [14 x i8] }> <{ [14 x i8] c"ChainExtension" }>, align 1
@alloc708 = private unnamed_addr constant <{ [33 x i8] }> <{ [33 x i8] c"metadata ink! generation failed: " }>, align 1
@alloc709 = private unnamed_addr constant <{ i8*, [8 x i8] }> <{ i8* getelementptr inbounds (<{ [33 x i8] }>, <{ [33 x i8] }>* @alloc708, i32 0, i32 0, i32 0), [8 x i8] c"!\00\00\00\00\00\00\00" }>, align 8
@alloc1597 = private unnamed_addr constant <{ i8*, [16 x i8] }> <{ i8* getelementptr inbounds (<{ [48 x i8] }>, <{ [48 x i8] }>* @alloc1596, i32 0, i32 0, i32 0), [16 x i8] c"0\00\00\00\00\00\00\00\03\00\00\00\01\00\00\00" }>, align 8
@alloc1603 = private unnamed_addr constant <{ [10 x i8] }> <{ [10 x i8] c"Flashloan0" }>, align 1
@alloc1616 = private unnamed_addr constant <{ [22 x i8] }> <{ [22 x i8] c"flashloan0::flashloan0" }>, align 1
@alloc1602 = private unnamed_addr constant <{ [8 x i8] }> <{ [8 x i8] c"balances" }>, align 1
@alloc1601 = private unnamed_addr constant <{ [134 x i8] }> <{ [134 x i8] c"<Mapping<AccountId, Balance> as::ink::storage::traits::\0AAutoStorableHint<::ink::storage::traits::ManualKey<1653958021u32,\0A()>,>>::Type" }>, align 1
@alloc1610 = private unnamed_addr constant <{ [11 x i8] }> <{ [11 x i8] c"CallBuilder" }>, align 1
@alloc1611 = private unnamed_addr constant <{ [10 x i8] }> <{ [10 x i8] c"account_id" }>, align 1
@vtable.b = private unnamed_addr constant <{ i8*, [16 x i8], i8* }> <{ i8* bitcast (void ({ i8*, i8* }**)* @"_ZN4core3ptr104drop_in_place$LT$$RF$mut$u20$std..io..Write..write_fmt..Adapter$LT$std..sys..unix..stdio..Stderr$GT$$GT$17h516d80bc7fafc6beE" to i8*), [16 x i8] c"\08\00\00\00\00\00\00\00\08\00\00\00\00\00\00\00", i8* bitcast (i1 (%"ink_primitives::types::AccountId"**, %"core::fmt::Formatter<'_>"*)* @"_ZN42_$LT$$RF$T$u20$as$u20$core..fmt..Debug$GT$3fmt17hcde5123d43440285E" to i8*) }>, align 8
@alloc1621 = private unnamed_addr constant <{ [13 x i8] }> <{ [13 x i8] c"Flashloan0Ref" }>, align 1
@alloc1622 = private unnamed_addr constant <{ [5 x i8] }> <{ [5 x i8] c"inner" }>, align 1
@alloc1618 = private unnamed_addr constant <{ [56 x i8] }> <{ [56 x i8] c"<Flashloan0 as::ink::codegen::ContractCallBuilder>::Type" }>, align 1
@vtable.c = private unnamed_addr constant <{ i8*, [16 x i8], i8* }> <{ i8* bitcast (void ({ i8*, i8* }**)* @"_ZN4core3ptr104drop_in_place$LT$$RF$mut$u20$std..io..Write..write_fmt..Adapter$LT$std..sys..unix..stdio..Stderr$GT$$GT$17h516d80bc7fafc6beE" to i8*), [16 x i8] c"\08\00\00\00\00\00\00\00\08\00\00\00\00\00\00\00", i8* bitcast (i1 (%"flashloan0::_::CallBuilder"**, %"core::fmt::Formatter<'_>"*)* @"_ZN42_$LT$$RF$T$u20$as$u20$core..fmt..Debug$GT$3fmt17h0702534c0237ccd8E" to i8*) }>, align 8

@"_ZN10flashloan010flashloan01_1_102_$LT$impl$u20$parity_scale_codec..codec..Encode$u20$for$u20$flashloan0..flashloan0.._..CallBuilder$GT$6encode17h03132546286b36c4E" = unnamed_addr alias void (%"alloc::vec::Vec<u8>"*, %"flashloan0::_::CallBuilder"*), bitcast (void (%"alloc::vec::Vec<u8>"*, %"flashloan0::Flashloan0Ref"*)* @"_ZN10flashloan010flashloan01_101_$LT$impl$u20$parity_scale_codec..codec..Encode$u20$for$u20$flashloan0..flashloan0..Flashloan0Ref$GT$6encode17h76d18ed15830b3beE" to void (%"alloc::vec::Vec<u8>"*, %"flashloan0::_::CallBuilder"*)*)
@"_ZN10flashloan010flashloan01_93_$LT$impl$u20$ink..codegen..env..StaticEnv$u20$for$u20$flashloan0..flashloan0..Flashloan0$GT$3env17h6644c50a44e07383E" = unnamed_addr alias void (), void ()* @"_ZN10flashloan010flashloan01_52_$LT$impl$u20$flashloan0..flashloan0..Flashloan0$GT$3new17h4994b32b44fb3f19E"
@"_ZN10flashloan010flashloan01_52_$LT$impl$u20$flashloan0..flashloan0..Flashloan0$GT$7default17hbbee9a830d75c93bE" = unnamed_addr alias void (), void ()* @"_ZN10flashloan010flashloan01_52_$LT$impl$u20$flashloan0..flashloan0..Flashloan0$GT$3new17h4994b32b44fb3f19E"

; scale_info::ty::path::Path::from_segments
; Function Attrs: nonlazybind uwtable
define internal fastcc void @_ZN10scale_info2ty4path4Path13from_segments17h2dc68393ec7dcd8bE(%"core::result::Result<scale_info::ty::path::Path, scale_info::ty::path::PathError>"* noalias nocapture noundef dereferenceable(32) %0, %"core::iter::adapters::map::Map<core::array::iter::IntoIter<&str, 2>, for<'a> fn(&'a str) -> &'a str {<str as core::convert::AsRef<str>>::as_ref}>"* noalias nocapture noundef readonly dereferenceable(48) %segments) unnamed_addr #0 personality i32 (i32, i32, i64, %"unwind::libunwind::_Unwind_Exception"*, %"unwind::libunwind::_Unwind_Context"*)* @rust_eh_personality {
start:
  %_4.i.i.i.i.i.i.i.i = alloca %"core::array::iter::IntoIter<&str, 2>", align 8
  %segments1 = alloca %"alloc::vec::Vec<&str>", align 8
  %1 = bitcast %"alloc::vec::Vec<&str>"* %segments1 to i8*
  call void @llvm.lifetime.start.p0i8(i64 24, i8* nonnull %1)
  %_4.sroa.0.0..sroa_cast = bitcast %"core::iter::adapters::map::Map<core::array::iter::IntoIter<&str, 2>, for<'a> fn(&'a str) -> &'a str {<str as core::convert::AsRef<str>>::as_ref}>"* %segments to i8*
  %_4.sroa.4.0..sroa_idx37 = getelementptr inbounds %"core::iter::adapters::map::Map<core::array::iter::IntoIter<&str, 2>, for<'a> fn(&'a str) -> &'a str {<str as core::convert::AsRef<str>>::as_ref}>", %"core::iter::adapters::map::Map<core::array::iter::IntoIter<&str, 2>, for<'a> fn(&'a str) -> &'a str {<str as core::convert::AsRef<str>>::as_ref}>"* %segments, i64 0, i32 1, i32 1, i32 0
  %_4.sroa.4.0.copyload = load i64, i64* %_4.sroa.4.0..sroa_idx37, align 8
  %_4.sroa.5.0..sroa_idx39 = getelementptr inbounds %"core::iter::adapters::map::Map<core::array::iter::IntoIter<&str, 2>, for<'a> fn(&'a str) -> &'a str {<str as core::convert::AsRef<str>>::as_ref}>", %"core::iter::adapters::map::Map<core::array::iter::IntoIter<&str, 2>, for<'a> fn(&'a str) -> &'a str {<str as core::convert::AsRef<str>>::as_ref}>"* %segments, i64 0, i32 1, i32 1, i32 1
  %_4.sroa.5.0.copyload = load i64, i64* %_4.sroa.5.0..sroa_idx39, align 8
  tail call void @llvm.experimental.noalias.scope.decl(metadata !2)
  tail call void @llvm.experimental.noalias.scope.decl(metadata !5)
  tail call void @llvm.experimental.noalias.scope.decl(metadata !8)
  tail call void @llvm.experimental.noalias.scope.decl(metadata !11)
  %2 = sub nuw i64 %_4.sroa.5.0.copyload, %_4.sroa.4.0.copyload
  %_5.i.i.i.i.i = icmp eq i64 %2, 0
  br i1 %_5.i.i.i.i.i, label %bb3.i.i.i.i.i.i, label %bb6.i.i.i.i.i

bb6.i.i.i.i.i:                                    ; preds = %start
  %_6.i.i.i.i.i.i = icmp ugt i64 %2, 576460752303423487
  %array_size.i.i.i.i.i.i = shl i64 %2, 4
  %.sroa.2.0.i.i.i.i.i.i = select i1 %_6.i.i.i.i.i.i, i64 0, i64 8
  br i1 %_6.i.i.i.i.i.i, label %bb7.i.i.i.i.i, label %bb15.i.i.i.i.i

bb7.i.i.i.i.i:                                    ; preds = %bb6.i.i.i.i.i
; call alloc::raw_vec::capacity_overflow
  tail call void @_ZN5alloc7raw_vec17capacity_overflow17h446ef6215d58ae44E() #25, !noalias !14
  unreachable

bb15.i.i.i.i.i:                                   ; preds = %bb6.i.i.i.i.i
  %3 = icmp eq i64 %array_size.i.i.i.i.i.i, 0
  br i1 %3, label %bb2.i.i.i.i.i.i.i, label %bb5.i.i.i.i.i.i.i

bb2.i.i.i.i.i.i.i:                                ; preds = %bb15.i.i.i.i.i
  %4 = inttoptr i64 %.sroa.2.0.i.i.i.i.i.i to i8*
  br label %"_ZN63_$LT$alloc..alloc..Global$u20$as$u20$core..alloc..Allocator$GT$8allocate17h7f506621e04e6db5E.exit.i.i.i.i.i"

bb5.i.i.i.i.i.i.i:                                ; preds = %bb15.i.i.i.i.i
  %5 = tail call noundef i8* @__rust_alloc(i64 noundef %array_size.i.i.i.i.i.i, i64 noundef %.sroa.2.0.i.i.i.i.i.i) #26, !noalias !14
  br label %"_ZN63_$LT$alloc..alloc..Global$u20$as$u20$core..alloc..Allocator$GT$8allocate17h7f506621e04e6db5E.exit.i.i.i.i.i"

"_ZN63_$LT$alloc..alloc..Global$u20$as$u20$core..alloc..Allocator$GT$8allocate17h7f506621e04e6db5E.exit.i.i.i.i.i": ; preds = %bb5.i.i.i.i.i.i.i, %bb2.i.i.i.i.i.i.i
  %.sroa.0.0.i.i.i.i.i.i.i = phi i8* [ %4, %bb2.i.i.i.i.i.i.i ], [ %5, %bb5.i.i.i.i.i.i.i ]
  %6 = icmp eq i8* %.sroa.0.0.i.i.i.i.i.i.i, null
  br i1 %6, label %bb19.i.i.i.i.i, label %bb21.i.i.i.i.i

bb21.i.i.i.i.i:                                   ; preds = %"_ZN63_$LT$alloc..alloc..Global$u20$as$u20$core..alloc..Allocator$GT$8allocate17h7f506621e04e6db5E.exit.i.i.i.i.i"
  %7 = bitcast i8* %.sroa.0.0.i.i.i.i.i.i.i to i64*
  br label %bb3.i.i.i.i.i.i

bb19.i.i.i.i.i:                                   ; preds = %"_ZN63_$LT$alloc..alloc..Global$u20$as$u20$core..alloc..Allocator$GT$8allocate17h7f506621e04e6db5E.exit.i.i.i.i.i"
; call alloc::alloc::handle_alloc_error
  tail call void @_ZN5alloc5alloc18handle_alloc_error17h54308f7b8b227d87E(i64 noundef %array_size.i.i.i.i.i.i, i64 noundef %.sroa.2.0.i.i.i.i.i.i) #25, !noalias !14
  unreachable

bb3.i.i.i.i.i.i:                                  ; preds = %bb21.i.i.i.i.i, %start
  %.sroa.3.0.i.i.i.i.i = phi i64* [ %7, %bb21.i.i.i.i.i ], [ inttoptr (i64 8 to i64*), %start ]
  %8 = getelementptr inbounds %"alloc::vec::Vec<&str>", %"alloc::vec::Vec<&str>"* %segments1, i64 0, i32 0, i32 0
  store i64 %2, i64* %8, align 8, !alias.scope !19, !noalias !20
  %9 = getelementptr inbounds %"alloc::vec::Vec<&str>", %"alloc::vec::Vec<&str>"* %segments1, i64 0, i32 0, i32 1
  store i64* %.sroa.3.0.i.i.i.i.i, i64** %9, align 8, !alias.scope !19, !noalias !20
  tail call void @llvm.experimental.noalias.scope.decl(metadata !21)
  tail call void @llvm.experimental.noalias.scope.decl(metadata !24)
  %10 = bitcast i64* %.sroa.3.0.i.i.i.i.i to { [0 x i8]*, i64 }*
  %11 = bitcast %"core::array::iter::IntoIter<&str, 2>"* %_4.i.i.i.i.i.i.i.i to i8*
  call void @llvm.lifetime.start.p0i8(i64 48, i8* nonnull %11) #26, !noalias !27
  call void @llvm.memcpy.p0i8.p0i8.i64(i8* noundef nonnull align 8 dereferenceable(32) %11, i8* noundef nonnull align 8 dereferenceable(32) %_4.sroa.0.0..sroa_cast, i64 32, i1 false)
  %_4.sroa.4.0..sroa_idx7.i.i.i.i.i = getelementptr inbounds %"core::array::iter::IntoIter<&str, 2>", %"core::array::iter::IntoIter<&str, 2>"* %_4.i.i.i.i.i.i.i.i, i64 0, i32 1, i32 0
  store i64 %_4.sroa.4.0.copyload, i64* %_4.sroa.4.0..sroa_idx7.i.i.i.i.i, align 8, !noalias !36
  %_4.sroa.5.0..sroa_idx11.i.i.i.i.i = getelementptr inbounds %"core::array::iter::IntoIter<&str, 2>", %"core::array::iter::IntoIter<&str, 2>"* %_4.i.i.i.i.i.i.i.i, i64 0, i32 1, i32 1
  store i64 %_4.sroa.5.0.copyload, i64* %_4.sroa.5.0..sroa_idx11.i.i.i.i.i, align 8, !noalias !36
  tail call void @llvm.experimental.noalias.scope.decl(metadata !37) #26
  tail call void @llvm.experimental.noalias.scope.decl(metadata !40) #26
  %_2.not.i11.i.i.i.i.i.i.i.i.i.i.i = icmp eq i64 %_4.sroa.5.0.copyload, %_4.sroa.4.0.copyload
  %12 = bitcast i64* %.sroa.3.0.i.i.i.i.i to i8*
  br i1 %_2.not.i11.i.i.i.i.i.i.i.i.i.i.i, label %bb3, label %bb3.i.i.i.i.i.i.i.i.i.i.i.preheader

bb3.i.i.i.i.i.i.i.i.i.i.i.preheader:              ; preds = %bb3.i.i.i.i.i.i
  %13 = sub i64 %_4.sroa.5.0.copyload, %_4.sroa.4.0.copyload
  %.neg = add i64 %_4.sroa.4.0.copyload, 1
  %xtraiter = and i64 %13, 1
  %14 = icmp eq i64 %_4.sroa.5.0.copyload, %.neg
  br i1 %14, label %bb3.loopexit.unr-lcssa, label %bb3.i.i.i.i.i.i.i.i.i.i.i.preheader.new

bb3.i.i.i.i.i.i.i.i.i.i.i.preheader.new:          ; preds = %bb3.i.i.i.i.i.i.i.i.i.i.i.preheader
  %unroll_iter = and i64 %13, -2
  br label %bb3.i.i.i.i.i.i.i.i.i.i.i

bb3.i.i.i.i.i.i.i.i.i.i.i:                        ; preds = %bb3.i.i.i.i.i.i.i.i.i.i.i, %bb3.i.i.i.i.i.i.i.i.i.i.i.preheader.new
  %count.i.i.i.i.i.i.i.i.i.i.i.i.i.i.i.i.i.i = phi i64 [ 0, %bb3.i.i.i.i.i.i.i.i.i.i.i.preheader.new ], [ %24, %bb3.i.i.i.i.i.i.i.i.i.i.i ]
  %self.val.idx.val.i12.i.i.i.i.i.i.i.i.i.i.i = phi i64 [ %_4.sroa.4.0.copyload, %bb3.i.i.i.i.i.i.i.i.i.i.i.preheader.new ], [ %20, %bb3.i.i.i.i.i.i.i.i.i.i.i ]
  %niter = phi i64 [ %unroll_iter, %bb3.i.i.i.i.i.i.i.i.i.i.i.preheader.new ], [ %niter.nsub.1, %bb3.i.i.i.i.i.i.i.i.i.i.i ]
  %15 = add nuw i64 %self.val.idx.val.i12.i.i.i.i.i.i.i.i.i.i.i, 1
  %16 = getelementptr inbounds %"core::array::iter::IntoIter<&str, 2>", %"core::array::iter::IntoIter<&str, 2>"* %_4.i.i.i.i.i.i.i.i, i64 0, i32 0, i64 %self.val.idx.val.i12.i.i.i.i.i.i.i.i.i.i.i
  %17 = bitcast { i8*, i64 }* %16 to [0 x i8]**
  %tmp.sroa.0.0.copyload14.i.i.i.i.i.i.i.i.i.i.i.i.i.i.i = load [0 x i8]*, [0 x i8]** %17, align 8, !alias.scope !43, !noalias !44, !nonnull !59
  %18 = getelementptr inbounds %"core::array::iter::IntoIter<&str, 2>", %"core::array::iter::IntoIter<&str, 2>"* %_4.i.i.i.i.i.i.i.i, i64 0, i32 0, i64 %self.val.idx.val.i12.i.i.i.i.i.i.i.i.i.i.i, i32 1
  %tmp.sroa.4.0.copyload.i.i.i.i.i.i.i.i.i.i.i.i.i.i.i = load i64, i64* %18, align 8, !alias.scope !43, !noalias !44
  %src.sroa.0.0..sroa_idx.i.i.i.i.i.i.i.i.i.i.i.i.i.i.i.i.i.i = getelementptr inbounds { [0 x i8]*, i64 }, { [0 x i8]*, i64 }* %10, i64 %count.i.i.i.i.i.i.i.i.i.i.i.i.i.i.i.i.i.i, i32 0
  store [0 x i8]* %tmp.sroa.0.0.copyload14.i.i.i.i.i.i.i.i.i.i.i.i.i.i.i, [0 x i8]** %src.sroa.0.0..sroa_idx.i.i.i.i.i.i.i.i.i.i.i.i.i.i.i.i.i.i, align 8, !noalias !60
  %src.sroa.4.0..sroa_idx4.i.i.i.i.i.i.i.i.i.i.i.i.i.i.i.i.i.i = getelementptr inbounds { [0 x i8]*, i64 }, { [0 x i8]*, i64 }* %10, i64 %count.i.i.i.i.i.i.i.i.i.i.i.i.i.i.i.i.i.i, i32 1
  store i64 %tmp.sroa.4.0.copyload.i.i.i.i.i.i.i.i.i.i.i.i.i.i.i, i64* %src.sroa.4.0..sroa_idx4.i.i.i.i.i.i.i.i.i.i.i.i.i.i.i.i.i.i, align 8, !noalias !70
  %19 = or i64 %count.i.i.i.i.i.i.i.i.i.i.i.i.i.i.i.i.i.i, 1
  %20 = add nuw i64 %self.val.idx.val.i12.i.i.i.i.i.i.i.i.i.i.i, 2
  %21 = getelementptr inbounds %"core::array::iter::IntoIter<&str, 2>", %"core::array::iter::IntoIter<&str, 2>"* %_4.i.i.i.i.i.i.i.i, i64 0, i32 0, i64 %15
  %22 = bitcast { i8*, i64 }* %21 to [0 x i8]**
  %tmp.sroa.0.0.copyload14.i.i.i.i.i.i.i.i.i.i.i.i.i.i.i.1 = load [0 x i8]*, [0 x i8]** %22, align 8, !alias.scope !43, !noalias !44, !nonnull !59
  %23 = getelementptr inbounds %"core::array::iter::IntoIter<&str, 2>", %"core::array::iter::IntoIter<&str, 2>"* %_4.i.i.i.i.i.i.i.i, i64 0, i32 0, i64 %15, i32 1
  %tmp.sroa.4.0.copyload.i.i.i.i.i.i.i.i.i.i.i.i.i.i.i.1 = load i64, i64* %23, align 8, !alias.scope !43, !noalias !44
  %src.sroa.0.0..sroa_idx.i.i.i.i.i.i.i.i.i.i.i.i.i.i.i.i.i.i.1 = getelementptr inbounds { [0 x i8]*, i64 }, { [0 x i8]*, i64 }* %10, i64 %19, i32 0
  store [0 x i8]* %tmp.sroa.0.0.copyload14.i.i.i.i.i.i.i.i.i.i.i.i.i.i.i.1, [0 x i8]** %src.sroa.0.0..sroa_idx.i.i.i.i.i.i.i.i.i.i.i.i.i.i.i.i.i.i.1, align 8, !noalias !60
  %src.sroa.4.0..sroa_idx4.i.i.i.i.i.i.i.i.i.i.i.i.i.i.i.i.i.i.1 = getelementptr inbounds { [0 x i8]*, i64 }, { [0 x i8]*, i64 }* %10, i64 %19, i32 1
  store i64 %tmp.sroa.4.0.copyload.i.i.i.i.i.i.i.i.i.i.i.i.i.i.i.1, i64* %src.sroa.4.0..sroa_idx4.i.i.i.i.i.i.i.i.i.i.i.i.i.i.i.i.i.i.1, align 8, !noalias !70
  %24 = add nuw i64 %count.i.i.i.i.i.i.i.i.i.i.i.i.i.i.i.i.i.i, 2
  %niter.nsub.1 = add i64 %niter, -2
  %niter.ncmp.1 = icmp eq i64 %niter.nsub.1, 0
  br i1 %niter.ncmp.1, label %bb3.loopexit.unr-lcssa, label %bb3.i.i.i.i.i.i.i.i.i.i.i

cleanup:                                          ; preds = %bb7.i
  %25 = landingpad { i8*, i32 }
          cleanup
; invoke core::ptr::drop_in_place<alloc::vec::Vec<&str>>
  invoke fastcc void @"_ZN4core3ptr51drop_in_place$LT$alloc..vec..Vec$LT$$RF$str$GT$$GT$17ha2aba66971651084E"(%"alloc::vec::Vec<&str>"* noundef nonnull %segments1) #27
          to label %bb14 unwind label %abort

bb3.loopexit.unr-lcssa:                           ; preds = %bb3.i.i.i.i.i.i.i.i.i.i.i, %bb3.i.i.i.i.i.i.i.i.i.i.i.preheader
  %.lcssa.ph = phi i64 [ undef, %bb3.i.i.i.i.i.i.i.i.i.i.i.preheader ], [ %24, %bb3.i.i.i.i.i.i.i.i.i.i.i ]
  %count.i.i.i.i.i.i.i.i.i.i.i.i.i.i.i.i.i.i.unr = phi i64 [ 0, %bb3.i.i.i.i.i.i.i.i.i.i.i.preheader ], [ %24, %bb3.i.i.i.i.i.i.i.i.i.i.i ]
  %self.val.idx.val.i12.i.i.i.i.i.i.i.i.i.i.i.unr = phi i64 [ %_4.sroa.4.0.copyload, %bb3.i.i.i.i.i.i.i.i.i.i.i.preheader ], [ %20, %bb3.i.i.i.i.i.i.i.i.i.i.i ]
  %lcmp.mod.not = icmp eq i64 %xtraiter, 0
  br i1 %lcmp.mod.not, label %bb3, label %bb3.i.i.i.i.i.i.i.i.i.i.i.epil

bb3.i.i.i.i.i.i.i.i.i.i.i.epil:                   ; preds = %bb3.loopexit.unr-lcssa
  %26 = getelementptr inbounds %"core::array::iter::IntoIter<&str, 2>", %"core::array::iter::IntoIter<&str, 2>"* %_4.i.i.i.i.i.i.i.i, i64 0, i32 0, i64 %self.val.idx.val.i12.i.i.i.i.i.i.i.i.i.i.i.unr
  %27 = bitcast { i8*, i64 }* %26 to [0 x i8]**
  %tmp.sroa.0.0.copyload14.i.i.i.i.i.i.i.i.i.i.i.i.i.i.i.epil = load [0 x i8]*, [0 x i8]** %27, align 8, !alias.scope !43, !noalias !44, !nonnull !59
  %28 = getelementptr inbounds %"core::array::iter::IntoIter<&str, 2>", %"core::array::iter::IntoIter<&str, 2>"* %_4.i.i.i.i.i.i.i.i, i64 0, i32 0, i64 %self.val.idx.val.i12.i.i.i.i.i.i.i.i.i.i.i.unr, i32 1
  %tmp.sroa.4.0.copyload.i.i.i.i.i.i.i.i.i.i.i.i.i.i.i.epil = load i64, i64* %28, align 8, !alias.scope !43, !noalias !44
  %src.sroa.0.0..sroa_idx.i.i.i.i.i.i.i.i.i.i.i.i.i.i.i.i.i.i.epil = getelementptr inbounds { [0 x i8]*, i64 }, { [0 x i8]*, i64 }* %10, i64 %count.i.i.i.i.i.i.i.i.i.i.i.i.i.i.i.i.i.i.unr, i32 0
  store [0 x i8]* %tmp.sroa.0.0.copyload14.i.i.i.i.i.i.i.i.i.i.i.i.i.i.i.epil, [0 x i8]** %src.sroa.0.0..sroa_idx.i.i.i.i.i.i.i.i.i.i.i.i.i.i.i.i.i.i.epil, align 8, !noalias !60
  %src.sroa.4.0..sroa_idx4.i.i.i.i.i.i.i.i.i.i.i.i.i.i.i.i.i.i.epil = getelementptr inbounds { [0 x i8]*, i64 }, { [0 x i8]*, i64 }* %10, i64 %count.i.i.i.i.i.i.i.i.i.i.i.i.i.i.i.i.i.i.unr, i32 1
  store i64 %tmp.sroa.4.0.copyload.i.i.i.i.i.i.i.i.i.i.i.i.i.i.i.epil, i64* %src.sroa.4.0..sroa_idx4.i.i.i.i.i.i.i.i.i.i.i.i.i.i.i.i.i.i.epil, align 8, !noalias !70
  %29 = add nuw i64 %count.i.i.i.i.i.i.i.i.i.i.i.i.i.i.i.i.i.i.unr, 1
  br label %bb3

bb3:                                              ; preds = %bb3.i.i.i.i.i.i.i.i.i.i.i.epil, %bb3.loopexit.unr-lcssa, %bb3.i.i.i.i.i.i
  %.idx.val.i.i.i.i.i.i.i.i.i.i.i.i = phi i64 [ 0, %bb3.i.i.i.i.i.i ], [ %.lcssa.ph, %bb3.loopexit.unr-lcssa ], [ %29, %bb3.i.i.i.i.i.i.i.i.i.i.i.epil ]
  %30 = getelementptr inbounds %"alloc::vec::Vec<&str>", %"alloc::vec::Vec<&str>"* %segments1, i64 0, i32 1
  store i64 %.idx.val.i.i.i.i.i.i.i.i.i.i.i.i, i64* %30, align 8, !alias.scope !71, !noalias !72
  call void @llvm.lifetime.end.p0i8(i64 48, i8* nonnull %11) #26, !noalias !27
  %31 = icmp eq i64 %.idx.val.i.i.i.i.i.i.i.i.i.i.i.i, 0
  br i1 %31, label %bb4, label %bb15

bb4:                                              ; preds = %bb3
  %32 = getelementptr inbounds %"core::result::Result<scale_info::ty::path::Path, scale_info::ty::path::PathError>", %"core::result::Result<scale_info::ty::path::Path, scale_info::ty::path::PathError>"* %0, i64 0, i32 1, i64 0
  store i64 0, i64* %32, align 8
  br label %bb10

bb10:                                             ; preds = %bb8, %bb4
  %33 = getelementptr inbounds %"core::result::Result<scale_info::ty::path::Path, scale_info::ty::path::PathError>", %"core::result::Result<scale_info::ty::path::Path, scale_info::ty::path::PathError>"* %0, i64 0, i32 0
  store i64 1, i64* %33, align 8
  br i1 %_5.i.i.i.i.i, label %"_ZN4core3ptr51drop_in_place$LT$alloc..vec..Vec$LT$$RF$str$GT$$GT$17ha2aba66971651084E.exit", label %bb2.i.i.i

bb2.i.i.i:                                        ; preds = %bb10
  %_6.i.i.i.i.i = icmp ult i64 %2, 576460752303423488
  %array_size.i.i.i.i.i = shl nuw nsw i64 %2, 4
  tail call void @llvm.assume(i1 %_6.i.i.i.i.i) #26
  tail call void @__rust_dealloc(i8* noundef nonnull %12, i64 noundef %array_size.i.i.i.i.i, i64 noundef 8) #26, !noalias !73
  br label %"_ZN4core3ptr51drop_in_place$LT$alloc..vec..Vec$LT$$RF$str$GT$$GT$17ha2aba66971651084E.exit"

"_ZN4core3ptr51drop_in_place$LT$alloc..vec..Vec$LT$$RF$str$GT$$GT$17ha2aba66971651084E.exit": ; preds = %bb10, %bb2.i.i.i
  call void @llvm.lifetime.end.p0i8(i64 24, i8* nonnull %1)
  br label %bb12

bb15:                                             ; preds = %bb3
  %34 = shl nsw i64 %.idx.val.i.i.i.i.i.i.i.i.i.i.i.i, 4
  %35 = add i64 %34, -16
  %36 = lshr exact i64 %35, 4
  br label %bb7.i

bb7.i:                                            ; preds = %bb15, %bb10.i
  %self1.i28.i = phi i64* [ %37, %bb10.i ], [ %.sroa.3.0.i.i.i.i.i, %bb15 ]
  %i.027.i = phi i64 [ %_28.0.i, %bb10.i ], [ 0, %bb15 ]
  %37 = getelementptr inbounds i64, i64* %self1.i28.i, i64 2
  %.idx.i = bitcast i64* %self1.i28.i to [0 x i8]**
  %.idx.val.i = load [0 x i8]*, [0 x i8]** %.idx.i, align 8, !noalias !76
  %38 = getelementptr i64, i64* %self1.i28.i, i64 1
  %.idx19.val.i = load i64, i64* %38, align 8, !noalias !76
; invoke scale_info::utils::is_rust_identifier
  %_3.i.i23 = invoke noundef zeroext i1 @_ZN10scale_info5utils18is_rust_identifier17h55709558e92d0518E([0 x i8]* noalias noundef nonnull readonly align 1 %.idx.val.i, i64 noundef %.idx19.val.i)
          to label %_3.i.i.noexc unwind label %cleanup

_3.i.i.noexc:                                     ; preds = %bb7.i
  br i1 %_3.i.i23, label %bb10.i, label %bb8

bb10.i:                                           ; preds = %_3.i.i.noexc
  %_28.0.i = add nuw nsw i64 %i.027.i, 1
  %exitcond = icmp eq i64 %i.027.i, %36
  br i1 %exitcond, label %bb9, label %bb7.i

abort:                                            ; preds = %cleanup
  %39 = landingpad { i8*, i32 }
          cleanup
; call core::panicking::panic_cannot_unwind
  tail call void @_ZN4core9panicking19panic_cannot_unwind17h4d963c01e40eff8cE() #28
  unreachable

bb14:                                             ; preds = %cleanup
  resume { i8*, i32 } %25

bb8:                                              ; preds = %_3.i.i.noexc
  %_24.i = icmp ult i64 %i.027.i, %.idx.val.i.i.i.i.i.i.i.i.i.i.i.i
  tail call void @llvm.assume(i1 %_24.i)
  %40 = getelementptr inbounds %"core::result::Result<scale_info::ty::path::Path, scale_info::ty::path::PathError>", %"core::result::Result<scale_info::ty::path::Path, scale_info::ty::path::PathError>"* %0, i64 0, i32 1, i64 0
  store i64 1, i64* %40, align 8
  %41 = getelementptr inbounds %"core::result::Result<scale_info::ty::path::Path, scale_info::ty::path::PathError>", %"core::result::Result<scale_info::ty::path::Path, scale_info::ty::path::PathError>"* %0, i64 0, i32 1, i64 1
  store i64 %i.027.i, i64* %41, align 8
  br label %bb10

bb9:                                              ; preds = %bb10.i
  %_19.sroa.0.0..sroa_idx13 = getelementptr inbounds %"core::result::Result<scale_info::ty::path::Path, scale_info::ty::path::PathError>", %"core::result::Result<scale_info::ty::path::Path, scale_info::ty::path::PathError>"* %0, i64 0, i32 1
  %_19.sroa.0.0..sroa_idx136566 = bitcast [3 x i64]* %_19.sroa.0.0..sroa_idx13 to i8*
  call void @llvm.memcpy.p0i8.p0i8.i64(i8* noundef nonnull align 8 dereferenceable(24) %_19.sroa.0.0..sroa_idx136566, i8* noundef nonnull align 8 dereferenceable(24) %1, i64 24, i1 false)
  %42 = getelementptr inbounds %"core::result::Result<scale_info::ty::path::Path, scale_info::ty::path::PathError>", %"core::result::Result<scale_info::ty::path::Path, scale_info::ty::path::PathError>"* %0, i64 0, i32 0
  store i64 0, i64* %42, align 8
  call void @llvm.lifetime.end.p0i8(i64 24, i8* nonnull %1)
  br label %bb12

bb12:                                             ; preds = %"_ZN4core3ptr51drop_in_place$LT$alloc..vec..Vec$LT$$RF$str$GT$$GT$17ha2aba66971651084E.exit", %bb9
  ret void
}

; scale_info::ty::path::Path::from_segments
; Function Attrs: nonlazybind uwtable
define internal fastcc void @_ZN10scale_info2ty4path4Path13from_segments17hc17a2236c1a1a34fE(%"core::result::Result<scale_info::ty::path::Path, scale_info::ty::path::PathError>"* noalias nocapture noundef dereferenceable(32) %0, %"core::iter::adapters::map::Map<core::array::iter::IntoIter<&str, 1>, for<'a> fn(&'a str) -> &'a str {<str as core::convert::AsRef<str>>::as_ref}>"* noalias nocapture noundef readonly dereferenceable(32) %segments) unnamed_addr #0 personality i32 (i32, i32, i64, %"unwind::libunwind::_Unwind_Exception"*, %"unwind::libunwind::_Unwind_Context"*)* @rust_eh_personality {
start:
  %_4.i.i.i.i.i.i.i.i = alloca %"core::array::iter::IntoIter<&str, 1>", align 8
  %segments1 = alloca %"alloc::vec::Vec<&str>", align 8
  %1 = bitcast %"alloc::vec::Vec<&str>"* %segments1 to i8*
  call void @llvm.lifetime.start.p0i8(i64 24, i8* nonnull %1)
  %_4.sroa.0.0..sroa_cast = bitcast %"core::iter::adapters::map::Map<core::array::iter::IntoIter<&str, 1>, for<'a> fn(&'a str) -> &'a str {<str as core::convert::AsRef<str>>::as_ref}>"* %segments to i8*
  %_4.sroa.4.0..sroa_idx37 = getelementptr inbounds %"core::iter::adapters::map::Map<core::array::iter::IntoIter<&str, 1>, for<'a> fn(&'a str) -> &'a str {<str as core::convert::AsRef<str>>::as_ref}>", %"core::iter::adapters::map::Map<core::array::iter::IntoIter<&str, 1>, for<'a> fn(&'a str) -> &'a str {<str as core::convert::AsRef<str>>::as_ref}>"* %segments, i64 0, i32 1, i32 1, i32 0
  %_4.sroa.4.0.copyload = load i64, i64* %_4.sroa.4.0..sroa_idx37, align 8
  %_4.sroa.5.0..sroa_idx39 = getelementptr inbounds %"core::iter::adapters::map::Map<core::array::iter::IntoIter<&str, 1>, for<'a> fn(&'a str) -> &'a str {<str as core::convert::AsRef<str>>::as_ref}>", %"core::iter::adapters::map::Map<core::array::iter::IntoIter<&str, 1>, for<'a> fn(&'a str) -> &'a str {<str as core::convert::AsRef<str>>::as_ref}>"* %segments, i64 0, i32 1, i32 1, i32 1
  %_4.sroa.5.0.copyload = load i64, i64* %_4.sroa.5.0..sroa_idx39, align 8
  tail call void @llvm.experimental.noalias.scope.decl(metadata !79)
  tail call void @llvm.experimental.noalias.scope.decl(metadata !82)
  tail call void @llvm.experimental.noalias.scope.decl(metadata !85)
  tail call void @llvm.experimental.noalias.scope.decl(metadata !88)
  %2 = sub nuw i64 %_4.sroa.5.0.copyload, %_4.sroa.4.0.copyload
  %_5.i.i.i.i.i = icmp eq i64 %2, 0
  br i1 %_5.i.i.i.i.i, label %bb3.i.i.i.i.i.i, label %bb6.i.i.i.i.i

bb6.i.i.i.i.i:                                    ; preds = %start
  %_6.i.i.i.i.i.i = icmp ugt i64 %2, 576460752303423487
  %array_size.i.i.i.i.i.i = shl i64 %2, 4
  %.sroa.2.0.i.i.i.i.i.i = select i1 %_6.i.i.i.i.i.i, i64 0, i64 8
  br i1 %_6.i.i.i.i.i.i, label %bb7.i.i.i.i.i, label %bb15.i.i.i.i.i

bb7.i.i.i.i.i:                                    ; preds = %bb6.i.i.i.i.i
; call alloc::raw_vec::capacity_overflow
  tail call void @_ZN5alloc7raw_vec17capacity_overflow17h446ef6215d58ae44E() #25, !noalias !91
  unreachable

bb15.i.i.i.i.i:                                   ; preds = %bb6.i.i.i.i.i
  %3 = icmp eq i64 %array_size.i.i.i.i.i.i, 0
  br i1 %3, label %bb2.i.i.i.i.i.i.i, label %bb5.i.i.i.i.i.i.i

bb2.i.i.i.i.i.i.i:                                ; preds = %bb15.i.i.i.i.i
  %4 = inttoptr i64 %.sroa.2.0.i.i.i.i.i.i to i8*
  br label %"_ZN63_$LT$alloc..alloc..Global$u20$as$u20$core..alloc..Allocator$GT$8allocate17h7f506621e04e6db5E.exit.i.i.i.i.i"

bb5.i.i.i.i.i.i.i:                                ; preds = %bb15.i.i.i.i.i
  %5 = tail call noundef i8* @__rust_alloc(i64 noundef %array_size.i.i.i.i.i.i, i64 noundef %.sroa.2.0.i.i.i.i.i.i) #26, !noalias !91
  br label %"_ZN63_$LT$alloc..alloc..Global$u20$as$u20$core..alloc..Allocator$GT$8allocate17h7f506621e04e6db5E.exit.i.i.i.i.i"

"_ZN63_$LT$alloc..alloc..Global$u20$as$u20$core..alloc..Allocator$GT$8allocate17h7f506621e04e6db5E.exit.i.i.i.i.i": ; preds = %bb5.i.i.i.i.i.i.i, %bb2.i.i.i.i.i.i.i
  %.sroa.0.0.i.i.i.i.i.i.i = phi i8* [ %4, %bb2.i.i.i.i.i.i.i ], [ %5, %bb5.i.i.i.i.i.i.i ]
  %6 = icmp eq i8* %.sroa.0.0.i.i.i.i.i.i.i, null
  br i1 %6, label %bb19.i.i.i.i.i, label %bb21.i.i.i.i.i

bb21.i.i.i.i.i:                                   ; preds = %"_ZN63_$LT$alloc..alloc..Global$u20$as$u20$core..alloc..Allocator$GT$8allocate17h7f506621e04e6db5E.exit.i.i.i.i.i"
  %7 = bitcast i8* %.sroa.0.0.i.i.i.i.i.i.i to i64*
  br label %bb3.i.i.i.i.i.i

bb19.i.i.i.i.i:                                   ; preds = %"_ZN63_$LT$alloc..alloc..Global$u20$as$u20$core..alloc..Allocator$GT$8allocate17h7f506621e04e6db5E.exit.i.i.i.i.i"
; call alloc::alloc::handle_alloc_error
  tail call void @_ZN5alloc5alloc18handle_alloc_error17h54308f7b8b227d87E(i64 noundef %array_size.i.i.i.i.i.i, i64 noundef %.sroa.2.0.i.i.i.i.i.i) #25, !noalias !91
  unreachable

bb3.i.i.i.i.i.i:                                  ; preds = %bb21.i.i.i.i.i, %start
  %.sroa.3.0.i.i.i.i.i = phi i64* [ %7, %bb21.i.i.i.i.i ], [ inttoptr (i64 8 to i64*), %start ]
  %8 = getelementptr inbounds %"alloc::vec::Vec<&str>", %"alloc::vec::Vec<&str>"* %segments1, i64 0, i32 0, i32 0
  store i64 %2, i64* %8, align 8, !alias.scope !96, !noalias !97
  %9 = getelementptr inbounds %"alloc::vec::Vec<&str>", %"alloc::vec::Vec<&str>"* %segments1, i64 0, i32 0, i32 1
  store i64* %.sroa.3.0.i.i.i.i.i, i64** %9, align 8, !alias.scope !96, !noalias !97
  tail call void @llvm.experimental.noalias.scope.decl(metadata !98)
  tail call void @llvm.experimental.noalias.scope.decl(metadata !101)
  %10 = bitcast i64* %.sroa.3.0.i.i.i.i.i to { [0 x i8]*, i64 }*
  %11 = bitcast %"core::array::iter::IntoIter<&str, 1>"* %_4.i.i.i.i.i.i.i.i to i8*
  call void @llvm.lifetime.start.p0i8(i64 32, i8* nonnull %11) #26, !noalias !104
  call void @llvm.memcpy.p0i8.p0i8.i64(i8* noundef nonnull align 8 dereferenceable(16) %11, i8* noundef nonnull align 8 dereferenceable(16) %_4.sroa.0.0..sroa_cast, i64 16, i1 false)
  %_4.sroa.4.0..sroa_idx7.i.i.i.i.i = getelementptr inbounds %"core::array::iter::IntoIter<&str, 1>", %"core::array::iter::IntoIter<&str, 1>"* %_4.i.i.i.i.i.i.i.i, i64 0, i32 1, i32 0
  store i64 %_4.sroa.4.0.copyload, i64* %_4.sroa.4.0..sroa_idx7.i.i.i.i.i, align 8, !noalias !113
  %_4.sroa.5.0..sroa_idx11.i.i.i.i.i = getelementptr inbounds %"core::array::iter::IntoIter<&str, 1>", %"core::array::iter::IntoIter<&str, 1>"* %_4.i.i.i.i.i.i.i.i, i64 0, i32 1, i32 1
  store i64 %_4.sroa.5.0.copyload, i64* %_4.sroa.5.0..sroa_idx11.i.i.i.i.i, align 8, !noalias !113
  tail call void @llvm.experimental.noalias.scope.decl(metadata !114) #26
  tail call void @llvm.experimental.noalias.scope.decl(metadata !117) #26
  %_2.not.i11.i.i.i.i.i.i.i.i.i.i.i = icmp eq i64 %_4.sroa.5.0.copyload, %_4.sroa.4.0.copyload
  %12 = bitcast i64* %.sroa.3.0.i.i.i.i.i to i8*
  br i1 %_2.not.i11.i.i.i.i.i.i.i.i.i.i.i, label %bb3, label %bb3.i.i.i.i.i.i.i.i.i.i.i.preheader

bb3.i.i.i.i.i.i.i.i.i.i.i.preheader:              ; preds = %bb3.i.i.i.i.i.i
  %13 = sub i64 %_4.sroa.5.0.copyload, %_4.sroa.4.0.copyload
  %.neg = add i64 %_4.sroa.4.0.copyload, 1
  %xtraiter = and i64 %13, 1
  %14 = icmp eq i64 %_4.sroa.5.0.copyload, %.neg
  br i1 %14, label %bb3.loopexit.unr-lcssa, label %bb3.i.i.i.i.i.i.i.i.i.i.i.preheader.new

bb3.i.i.i.i.i.i.i.i.i.i.i.preheader.new:          ; preds = %bb3.i.i.i.i.i.i.i.i.i.i.i.preheader
  %unroll_iter = and i64 %13, -2
  br label %bb3.i.i.i.i.i.i.i.i.i.i.i

bb3.i.i.i.i.i.i.i.i.i.i.i:                        ; preds = %bb3.i.i.i.i.i.i.i.i.i.i.i, %bb3.i.i.i.i.i.i.i.i.i.i.i.preheader.new
  %count.i.i.i.i.i.i.i.i.i.i.i.i.i.i.i.i.i.i = phi i64 [ 0, %bb3.i.i.i.i.i.i.i.i.i.i.i.preheader.new ], [ %24, %bb3.i.i.i.i.i.i.i.i.i.i.i ]
  %self.val.idx.val.i12.i.i.i.i.i.i.i.i.i.i.i = phi i64 [ %_4.sroa.4.0.copyload, %bb3.i.i.i.i.i.i.i.i.i.i.i.preheader.new ], [ %20, %bb3.i.i.i.i.i.i.i.i.i.i.i ]
  %niter = phi i64 [ %unroll_iter, %bb3.i.i.i.i.i.i.i.i.i.i.i.preheader.new ], [ %niter.nsub.1, %bb3.i.i.i.i.i.i.i.i.i.i.i ]
  %15 = add nuw i64 %self.val.idx.val.i12.i.i.i.i.i.i.i.i.i.i.i, 1
  %16 = getelementptr inbounds %"core::array::iter::IntoIter<&str, 1>", %"core::array::iter::IntoIter<&str, 1>"* %_4.i.i.i.i.i.i.i.i, i64 0, i32 0, i64 %self.val.idx.val.i12.i.i.i.i.i.i.i.i.i.i.i
  %17 = bitcast { i8*, i64 }* %16 to [0 x i8]**
  %tmp.sroa.0.0.copyload14.i.i.i.i.i.i.i.i.i.i.i.i.i.i.i = load [0 x i8]*, [0 x i8]** %17, align 8, !alias.scope !120, !noalias !121, !nonnull !59
  %18 = getelementptr inbounds %"core::array::iter::IntoIter<&str, 1>", %"core::array::iter::IntoIter<&str, 1>"* %_4.i.i.i.i.i.i.i.i, i64 0, i32 0, i64 %self.val.idx.val.i12.i.i.i.i.i.i.i.i.i.i.i, i32 1
  %tmp.sroa.4.0.copyload.i.i.i.i.i.i.i.i.i.i.i.i.i.i.i = load i64, i64* %18, align 8, !alias.scope !120, !noalias !121
  %src.sroa.0.0..sroa_idx.i.i.i.i.i.i.i.i.i.i.i.i.i.i.i.i.i.i = getelementptr inbounds { [0 x i8]*, i64 }, { [0 x i8]*, i64 }* %10, i64 %count.i.i.i.i.i.i.i.i.i.i.i.i.i.i.i.i.i.i, i32 0
  store [0 x i8]* %tmp.sroa.0.0.copyload14.i.i.i.i.i.i.i.i.i.i.i.i.i.i.i, [0 x i8]** %src.sroa.0.0..sroa_idx.i.i.i.i.i.i.i.i.i.i.i.i.i.i.i.i.i.i, align 8, !noalias !136
  %src.sroa.4.0..sroa_idx4.i.i.i.i.i.i.i.i.i.i.i.i.i.i.i.i.i.i = getelementptr inbounds { [0 x i8]*, i64 }, { [0 x i8]*, i64 }* %10, i64 %count.i.i.i.i.i.i.i.i.i.i.i.i.i.i.i.i.i.i, i32 1
  store i64 %tmp.sroa.4.0.copyload.i.i.i.i.i.i.i.i.i.i.i.i.i.i.i, i64* %src.sroa.4.0..sroa_idx4.i.i.i.i.i.i.i.i.i.i.i.i.i.i.i.i.i.i, align 8, !noalias !146
  %19 = or i64 %count.i.i.i.i.i.i.i.i.i.i.i.i.i.i.i.i.i.i, 1
  %20 = add nuw i64 %self.val.idx.val.i12.i.i.i.i.i.i.i.i.i.i.i, 2
  %21 = getelementptr inbounds %"core::array::iter::IntoIter<&str, 1>", %"core::array::iter::IntoIter<&str, 1>"* %_4.i.i.i.i.i.i.i.i, i64 0, i32 0, i64 %15
  %22 = bitcast { i8*, i64 }* %21 to [0 x i8]**
  %tmp.sroa.0.0.copyload14.i.i.i.i.i.i.i.i.i.i.i.i.i.i.i.1 = load [0 x i8]*, [0 x i8]** %22, align 8, !alias.scope !120, !noalias !121, !nonnull !59
  %23 = getelementptr inbounds %"core::array::iter::IntoIter<&str, 1>", %"core::array::iter::IntoIter<&str, 1>"* %_4.i.i.i.i.i.i.i.i, i64 0, i32 0, i64 %15, i32 1
  %tmp.sroa.4.0.copyload.i.i.i.i.i.i.i.i.i.i.i.i.i.i.i.1 = load i64, i64* %23, align 8, !alias.scope !120, !noalias !121
  %src.sroa.0.0..sroa_idx.i.i.i.i.i.i.i.i.i.i.i.i.i.i.i.i.i.i.1 = getelementptr inbounds { [0 x i8]*, i64 }, { [0 x i8]*, i64 }* %10, i64 %19, i32 0
  store [0 x i8]* %tmp.sroa.0.0.copyload14.i.i.i.i.i.i.i.i.i.i.i.i.i.i.i.1, [0 x i8]** %src.sroa.0.0..sroa_idx.i.i.i.i.i.i.i.i.i.i.i.i.i.i.i.i.i.i.1, align 8, !noalias !136
  %src.sroa.4.0..sroa_idx4.i.i.i.i.i.i.i.i.i.i.i.i.i.i.i.i.i.i.1 = getelementptr inbounds { [0 x i8]*, i64 }, { [0 x i8]*, i64 }* %10, i64 %19, i32 1
  store i64 %tmp.sroa.4.0.copyload.i.i.i.i.i.i.i.i.i.i.i.i.i.i.i.1, i64* %src.sroa.4.0..sroa_idx4.i.i.i.i.i.i.i.i.i.i.i.i.i.i.i.i.i.i.1, align 8, !noalias !146
  %24 = add nuw i64 %count.i.i.i.i.i.i.i.i.i.i.i.i.i.i.i.i.i.i, 2
  %niter.nsub.1 = add i64 %niter, -2
  %niter.ncmp.1 = icmp eq i64 %niter.nsub.1, 0
  br i1 %niter.ncmp.1, label %bb3.loopexit.unr-lcssa, label %bb3.i.i.i.i.i.i.i.i.i.i.i

cleanup:                                          ; preds = %bb7.i
  %25 = landingpad { i8*, i32 }
          cleanup
; invoke core::ptr::drop_in_place<alloc::vec::Vec<&str>>
  invoke fastcc void @"_ZN4core3ptr51drop_in_place$LT$alloc..vec..Vec$LT$$RF$str$GT$$GT$17ha2aba66971651084E"(%"alloc::vec::Vec<&str>"* noundef nonnull %segments1) #27
          to label %bb14 unwind label %abort

bb3.loopexit.unr-lcssa:                           ; preds = %bb3.i.i.i.i.i.i.i.i.i.i.i, %bb3.i.i.i.i.i.i.i.i.i.i.i.preheader
  %.lcssa.ph = phi i64 [ undef, %bb3.i.i.i.i.i.i.i.i.i.i.i.preheader ], [ %24, %bb3.i.i.i.i.i.i.i.i.i.i.i ]
  %count.i.i.i.i.i.i.i.i.i.i.i.i.i.i.i.i.i.i.unr = phi i64 [ 0, %bb3.i.i.i.i.i.i.i.i.i.i.i.preheader ], [ %24, %bb3.i.i.i.i.i.i.i.i.i.i.i ]
  %self.val.idx.val.i12.i.i.i.i.i.i.i.i.i.i.i.unr = phi i64 [ %_4.sroa.4.0.copyload, %bb3.i.i.i.i.i.i.i.i.i.i.i.preheader ], [ %20, %bb3.i.i.i.i.i.i.i.i.i.i.i ]
  %lcmp.mod.not = icmp eq i64 %xtraiter, 0
  br i1 %lcmp.mod.not, label %bb3, label %bb3.i.i.i.i.i.i.i.i.i.i.i.epil

bb3.i.i.i.i.i.i.i.i.i.i.i.epil:                   ; preds = %bb3.loopexit.unr-lcssa
  %26 = getelementptr inbounds %"core::array::iter::IntoIter<&str, 1>", %"core::array::iter::IntoIter<&str, 1>"* %_4.i.i.i.i.i.i.i.i, i64 0, i32 0, i64 %self.val.idx.val.i12.i.i.i.i.i.i.i.i.i.i.i.unr
  %27 = bitcast { i8*, i64 }* %26 to [0 x i8]**
  %tmp.sroa.0.0.copyload14.i.i.i.i.i.i.i.i.i.i.i.i.i.i.i.epil = load [0 x i8]*, [0 x i8]** %27, align 8, !alias.scope !120, !noalias !121, !nonnull !59
  %28 = getelementptr inbounds %"core::array::iter::IntoIter<&str, 1>", %"core::array::iter::IntoIter<&str, 1>"* %_4.i.i.i.i.i.i.i.i, i64 0, i32 0, i64 %self.val.idx.val.i12.i.i.i.i.i.i.i.i.i.i.i.unr, i32 1
  %tmp.sroa.4.0.copyload.i.i.i.i.i.i.i.i.i.i.i.i.i.i.i.epil = load i64, i64* %28, align 8, !alias.scope !120, !noalias !121
  %src.sroa.0.0..sroa_idx.i.i.i.i.i.i.i.i.i.i.i.i.i.i.i.i.i.i.epil = getelementptr inbounds { [0 x i8]*, i64 }, { [0 x i8]*, i64 }* %10, i64 %count.i.i.i.i.i.i.i.i.i.i.i.i.i.i.i.i.i.i.unr, i32 0
  store [0 x i8]* %tmp.sroa.0.0.copyload14.i.i.i.i.i.i.i.i.i.i.i.i.i.i.i.epil, [0 x i8]** %src.sroa.0.0..sroa_idx.i.i.i.i.i.i.i.i.i.i.i.i.i.i.i.i.i.i.epil, align 8, !noalias !136
  %src.sroa.4.0..sroa_idx4.i.i.i.i.i.i.i.i.i.i.i.i.i.i.i.i.i.i.epil = getelementptr inbounds { [0 x i8]*, i64 }, { [0 x i8]*, i64 }* %10, i64 %count.i.i.i.i.i.i.i.i.i.i.i.i.i.i.i.i.i.i.unr, i32 1
  store i64 %tmp.sroa.4.0.copyload.i.i.i.i.i.i.i.i.i.i.i.i.i.i.i.epil, i64* %src.sroa.4.0..sroa_idx4.i.i.i.i.i.i.i.i.i.i.i.i.i.i.i.i.i.i.epil, align 8, !noalias !146
  %29 = add nuw i64 %count.i.i.i.i.i.i.i.i.i.i.i.i.i.i.i.i.i.i.unr, 1
  br label %bb3

bb3:                                              ; preds = %bb3.i.i.i.i.i.i.i.i.i.i.i.epil, %bb3.loopexit.unr-lcssa, %bb3.i.i.i.i.i.i
  %.idx.val.i.i.i.i.i.i.i.i.i.i.i.i = phi i64 [ 0, %bb3.i.i.i.i.i.i ], [ %.lcssa.ph, %bb3.loopexit.unr-lcssa ], [ %29, %bb3.i.i.i.i.i.i.i.i.i.i.i.epil ]
  %30 = getelementptr inbounds %"alloc::vec::Vec<&str>", %"alloc::vec::Vec<&str>"* %segments1, i64 0, i32 1
  store i64 %.idx.val.i.i.i.i.i.i.i.i.i.i.i.i, i64* %30, align 8, !alias.scope !147, !noalias !148
  call void @llvm.lifetime.end.p0i8(i64 32, i8* nonnull %11) #26, !noalias !104
  %31 = icmp eq i64 %.idx.val.i.i.i.i.i.i.i.i.i.i.i.i, 0
  br i1 %31, label %bb4, label %bb15

bb4:                                              ; preds = %bb3
  %32 = getelementptr inbounds %"core::result::Result<scale_info::ty::path::Path, scale_info::ty::path::PathError>", %"core::result::Result<scale_info::ty::path::Path, scale_info::ty::path::PathError>"* %0, i64 0, i32 1, i64 0
  store i64 0, i64* %32, align 8
  br label %bb10

bb10:                                             ; preds = %bb8, %bb4
  %33 = getelementptr inbounds %"core::result::Result<scale_info::ty::path::Path, scale_info::ty::path::PathError>", %"core::result::Result<scale_info::ty::path::Path, scale_info::ty::path::PathError>"* %0, i64 0, i32 0
  store i64 1, i64* %33, align 8
  br i1 %_5.i.i.i.i.i, label %"_ZN4core3ptr51drop_in_place$LT$alloc..vec..Vec$LT$$RF$str$GT$$GT$17ha2aba66971651084E.exit", label %bb2.i.i.i

bb2.i.i.i:                                        ; preds = %bb10
  %_6.i.i.i.i.i = icmp ult i64 %2, 576460752303423488
  %array_size.i.i.i.i.i = shl nuw nsw i64 %2, 4
  tail call void @llvm.assume(i1 %_6.i.i.i.i.i) #26
  tail call void @__rust_dealloc(i8* noundef nonnull %12, i64 noundef %array_size.i.i.i.i.i, i64 noundef 8) #26, !noalias !149
  br label %"_ZN4core3ptr51drop_in_place$LT$alloc..vec..Vec$LT$$RF$str$GT$$GT$17ha2aba66971651084E.exit"

"_ZN4core3ptr51drop_in_place$LT$alloc..vec..Vec$LT$$RF$str$GT$$GT$17ha2aba66971651084E.exit": ; preds = %bb10, %bb2.i.i.i
  call void @llvm.lifetime.end.p0i8(i64 24, i8* nonnull %1)
  br label %bb12

bb15:                                             ; preds = %bb3
  %34 = shl nsw i64 %.idx.val.i.i.i.i.i.i.i.i.i.i.i.i, 4
  %35 = add i64 %34, -16
  %36 = lshr exact i64 %35, 4
  br label %bb7.i

bb7.i:                                            ; preds = %bb15, %bb10.i
  %self1.i28.i = phi i64* [ %37, %bb10.i ], [ %.sroa.3.0.i.i.i.i.i, %bb15 ]
  %i.027.i = phi i64 [ %_28.0.i, %bb10.i ], [ 0, %bb15 ]
  %37 = getelementptr inbounds i64, i64* %self1.i28.i, i64 2
  %.idx.i = bitcast i64* %self1.i28.i to [0 x i8]**
  %.idx.val.i = load [0 x i8]*, [0 x i8]** %.idx.i, align 8, !noalias !152
  %38 = getelementptr i64, i64* %self1.i28.i, i64 1
  %.idx19.val.i = load i64, i64* %38, align 8, !noalias !152
; invoke scale_info::utils::is_rust_identifier
  %_3.i.i23 = invoke noundef zeroext i1 @_ZN10scale_info5utils18is_rust_identifier17h55709558e92d0518E([0 x i8]* noalias noundef nonnull readonly align 1 %.idx.val.i, i64 noundef %.idx19.val.i)
          to label %_3.i.i.noexc unwind label %cleanup

_3.i.i.noexc:                                     ; preds = %bb7.i
  br i1 %_3.i.i23, label %bb10.i, label %bb8

bb10.i:                                           ; preds = %_3.i.i.noexc
  %_28.0.i = add nuw nsw i64 %i.027.i, 1
  %exitcond = icmp eq i64 %i.027.i, %36
  br i1 %exitcond, label %bb9, label %bb7.i

abort:                                            ; preds = %cleanup
  %39 = landingpad { i8*, i32 }
          cleanup
; call core::panicking::panic_cannot_unwind
  tail call void @_ZN4core9panicking19panic_cannot_unwind17h4d963c01e40eff8cE() #28
  unreachable

bb14:                                             ; preds = %cleanup
  resume { i8*, i32 } %25

bb8:                                              ; preds = %_3.i.i.noexc
  %_24.i = icmp ult i64 %i.027.i, %.idx.val.i.i.i.i.i.i.i.i.i.i.i.i
  tail call void @llvm.assume(i1 %_24.i)
  %40 = getelementptr inbounds %"core::result::Result<scale_info::ty::path::Path, scale_info::ty::path::PathError>", %"core::result::Result<scale_info::ty::path::Path, scale_info::ty::path::PathError>"* %0, i64 0, i32 1, i64 0
  store i64 1, i64* %40, align 8
  %41 = getelementptr inbounds %"core::result::Result<scale_info::ty::path::Path, scale_info::ty::path::PathError>", %"core::result::Result<scale_info::ty::path::Path, scale_info::ty::path::PathError>"* %0, i64 0, i32 1, i64 1
  store i64 %i.027.i, i64* %41, align 8
  br label %bb10

bb9:                                              ; preds = %bb10.i
  %_19.sroa.0.0..sroa_idx13 = getelementptr inbounds %"core::result::Result<scale_info::ty::path::Path, scale_info::ty::path::PathError>", %"core::result::Result<scale_info::ty::path::Path, scale_info::ty::path::PathError>"* %0, i64 0, i32 1
  %_19.sroa.0.0..sroa_idx136566 = bitcast [3 x i64]* %_19.sroa.0.0..sroa_idx13 to i8*
  call void @llvm.memcpy.p0i8.p0i8.i64(i8* noundef nonnull align 8 dereferenceable(24) %_19.sroa.0.0..sroa_idx136566, i8* noundef nonnull align 8 dereferenceable(24) %1, i64 24, i1 false)
  %42 = getelementptr inbounds %"core::result::Result<scale_info::ty::path::Path, scale_info::ty::path::PathError>", %"core::result::Result<scale_info::ty::path::Path, scale_info::ty::path::PathError>"* %0, i64 0, i32 0
  store i64 0, i64* %42, align 8
  call void @llvm.lifetime.end.p0i8(i64 24, i8* nonnull %1)
  br label %bb12

bb12:                                             ; preds = %"_ZN4core3ptr51drop_in_place$LT$alloc..vec..Vec$LT$$RF$str$GT$$GT$17ha2aba66971651084E.exit", %bb9
  ret void
}

; scale_info::build::TypeBuilder<F,scale_info::build::state::PathAssigned>::variant
; Function Attrs: nonlazybind uwtable
define internal fastcc void @"_ZN10scale_info5build61TypeBuilder$LT$F$C$scale_info..build..state..PathAssigned$GT$7variant17hb2696741f049afb7E"(%"scale_info::ty::Type"* noalias nocapture noundef dereferenceable(112) %0, %"scale_info::build::TypeBuilder<scale_info::form::MetaForm, scale_info::build::state::PathAssigned>"* noalias nocapture noundef readonly dereferenceable(72) %self, %"scale_info::build::Variants"* noalias nocapture noundef readonly dereferenceable(24) %builder) unnamed_addr #0 personality i32 (i32, i32, i64, %"unwind::libunwind::_Unwind_Exception"*, %"unwind::libunwind::_Unwind_Context"*)* @rust_eh_personality {
bb1:
  %_9.sroa.4.i.i = alloca [31 x i8], align 1
  %_4 = alloca %"scale_info::ty::variant::TypeDefVariant", align 8
  %_3 = alloca %"scale_info::build::TypeBuilder<scale_info::form::MetaForm, scale_info::build::state::PathAssigned>", align 8
  %1 = bitcast %"scale_info::build::TypeBuilder<scale_info::form::MetaForm, scale_info::build::state::PathAssigned>"* %_3 to i8*
  call void @llvm.lifetime.start.p0i8(i64 72, i8* nonnull %1)
  %2 = bitcast %"scale_info::build::TypeBuilder<scale_info::form::MetaForm, scale_info::build::state::PathAssigned>"* %self to i8*
  call void @llvm.memcpy.p0i8.p0i8.i64(i8* noundef nonnull align 8 dereferenceable(72) %1, i8* noundef nonnull align 8 dereferenceable(72) %2, i64 72, i1 false)
  %3 = bitcast %"scale_info::ty::variant::TypeDefVariant"* %_4 to i8*
  call void @llvm.lifetime.start.p0i8(i64 24, i8* nonnull %3)
  %_5.sroa.0.0..sroa_idx = getelementptr inbounds %"scale_info::build::Variants", %"scale_info::build::Variants"* %builder, i64 0, i32 0, i32 0, i32 0
  %_5.sroa.0.0.copyload = load i64, i64* %_5.sroa.0.0..sroa_idx, align 8
  %_5.sroa.4.0..sroa_idx5 = getelementptr inbounds %"scale_info::build::Variants", %"scale_info::build::Variants"* %builder, i64 0, i32 0, i32 0, i32 1
  %_5.sroa.4.0..sroa_cast = bitcast i64** %_5.sroa.4.0..sroa_idx5 to %"scale_info::ty::variant::Variant"**
  %_5.sroa.4.0.copyload = load %"scale_info::ty::variant::Variant"*, %"scale_info::ty::variant::Variant"** %_5.sroa.4.0..sroa_cast, align 8, !nonnull !59
  %_5.sroa.5.0..sroa_idx7 = getelementptr inbounds %"scale_info::build::Variants", %"scale_info::build::Variants"* %builder, i64 0, i32 0, i32 1
  %_5.sroa.5.0.copyload = load i64, i64* %_5.sroa.5.0..sroa_idx7, align 8
  %_2.sroa.0.0..sroa_idx.i.i = getelementptr inbounds %"scale_info::ty::variant::TypeDefVariant", %"scale_info::ty::variant::TypeDefVariant"* %_4, i64 0, i32 0, i32 0, i32 0
  store i64 %_5.sroa.0.0.copyload, i64* %_2.sroa.0.0..sroa_idx.i.i, align 8, !alias.scope !155, !noalias !160
  %_2.sroa.5.0..sroa_idx4.i.i = getelementptr inbounds %"scale_info::ty::variant::TypeDefVariant", %"scale_info::ty::variant::TypeDefVariant"* %_4, i64 0, i32 0, i32 0, i32 1
  %_2.sroa.5.0..sroa_cast.i.i = bitcast i64** %_2.sroa.5.0..sroa_idx4.i.i to %"scale_info::ty::variant::Variant"**
  store %"scale_info::ty::variant::Variant"* %_5.sroa.4.0.copyload, %"scale_info::ty::variant::Variant"** %_2.sroa.5.0..sroa_cast.i.i, align 8, !alias.scope !155, !noalias !160
  %_2.sroa.6.0..sroa_idx9.i.i = getelementptr inbounds %"scale_info::ty::variant::TypeDefVariant", %"scale_info::ty::variant::TypeDefVariant"* %_4, i64 0, i32 0, i32 1
  store i64 %_5.sroa.5.0.copyload, i64* %_2.sroa.6.0..sroa_idx9.i.i, align 8, !alias.scope !155, !noalias !160
  tail call void @llvm.experimental.noalias.scope.decl(metadata !163)
  tail call void @llvm.experimental.noalias.scope.decl(metadata !166)
  %4 = getelementptr inbounds %"scale_info::build::TypeBuilder<scale_info::form::MetaForm, scale_info::build::state::PathAssigned>", %"scale_info::build::TypeBuilder<scale_info::form::MetaForm, scale_info::build::state::PathAssigned>"* %_3, i64 0, i32 1, i32 1
  %self1.sroa.4.0.copyload.i = load {}*, {}** %4, align 8, !alias.scope !166, !noalias !168
  %5 = icmp eq {}* %self1.sroa.4.0.copyload.i, null
  br i1 %5, label %bb9.i, label %bb2

bb9.i:                                            ; preds = %bb1
; invoke core::option::expect_failed
  invoke void @_ZN4core6option13expect_failed17h8fad9fe05aab103eE([0 x i8]* noalias noundef nonnull readonly align 1 bitcast (<{ [17 x i8] }>* @alloc1340 to [0 x i8]*), i64 noundef 17, %"core::panic::location::Location<'_>"* noalias noundef readonly align 8 dereferenceable(24) bitcast (<{ i8*, [16 x i8] }>* @alloc1339 to %"core::panic::location::Location<'_>"*)) #25
          to label %unreachable.i unwind label %bb4.i, !noalias !170

unreachable.i:                                    ; preds = %bb9.i
  unreachable

bb4.i:                                            ; preds = %bb9.i
  %6 = landingpad { i8*, i32 }
          cleanup
  invoke fastcc void bitcast (void (%"scale_info::build::Variants"*)* @"_ZN4core3ptr48drop_in_place$LT$scale_info..build..Variants$GT$17h969a766fc647e422E" to void (%"scale_info::ty::variant::TypeDefVariant"*)*)(%"scale_info::ty::variant::TypeDefVariant"* noundef nonnull %_4) #27
          to label %bb8.i unwind label %abort.i, !noalias !171

abort.i:                                          ; preds = %bb7.i, %bb8.i, %bb4.i
  %7 = landingpad { i8*, i32 }
          cleanup
; call core::panicking::panic_cannot_unwind
  tail call void @_ZN4core9panicking19panic_cannot_unwind17h4d963c01e40eff8cE() #28, !noalias !170
  unreachable

bb8.i:                                            ; preds = %bb4.i
  %8 = getelementptr inbounds %"scale_info::build::TypeBuilder<scale_info::form::MetaForm, scale_info::build::state::PathAssigned>", %"scale_info::build::TypeBuilder<scale_info::form::MetaForm, scale_info::build::state::PathAssigned>"* %_3, i64 0, i32 2
; invoke core::ptr::drop_in_place<alloc::vec::Vec<scale_info::ty::TypeParameter>>
  invoke fastcc void @"_ZN4core3ptr73drop_in_place$LT$alloc..vec..Vec$LT$scale_info..ty..TypeParameter$GT$$GT$17hc0b186692b630a6fE"(%"alloc::vec::Vec<scale_info::ty::TypeParameter>"* noundef nonnull %8) #27
          to label %bb7.i unwind label %abort.i, !noalias !168

bb7.i:                                            ; preds = %bb8.i
  %9 = getelementptr inbounds %"scale_info::build::TypeBuilder<scale_info::form::MetaForm, scale_info::build::state::PathAssigned>", %"scale_info::build::TypeBuilder<scale_info::form::MetaForm, scale_info::build::state::PathAssigned>"* %_3, i64 0, i32 3
; invoke core::ptr::drop_in_place<alloc::vec::Vec<&str>>
  invoke fastcc void @"_ZN4core3ptr51drop_in_place$LT$alloc..vec..Vec$LT$$RF$str$GT$$GT$17ha2aba66971651084E"(%"alloc::vec::Vec<&str>"* noundef nonnull %9) #27
          to label %bb3 unwind label %abort.i, !noalias !168

bb2:                                              ; preds = %bb1
  %10 = getelementptr inbounds %"scale_info::build::TypeBuilder<scale_info::form::MetaForm, scale_info::build::state::PathAssigned>", %"scale_info::build::TypeBuilder<scale_info::form::MetaForm, scale_info::build::state::PathAssigned>"* %_3, i64 0, i32 1, i32 2, i64 0
  %self1.sroa.5.0.copyload.i = load i64, i64* %10, align 8, !alias.scope !166, !noalias !168
  %self1.sroa.0.0..sroa_idx.i = bitcast %"scale_info::build::TypeBuilder<scale_info::form::MetaForm, scale_info::build::state::PathAssigned>"* %_3 to i64*
  %self1.sroa.0.0.copyload.i = load i64, i64* %self1.sroa.0.0..sroa_idx.i, align 8, !alias.scope !166, !noalias !168
  %_8.sroa.0.0..sroa_idx.i = getelementptr inbounds %"scale_info::build::TypeBuilder<scale_info::form::MetaForm, scale_info::build::state::PathAssigned>", %"scale_info::build::TypeBuilder<scale_info::form::MetaForm, scale_info::build::state::PathAssigned>"* %_3, i64 0, i32 2, i32 0, i32 0
  %_8.sroa.0.0.copyload.i = load i64, i64* %_8.sroa.0.0..sroa_idx.i, align 8, !alias.scope !166, !noalias !168
  %_8.sroa.4.0..sroa_idx33.i = getelementptr inbounds %"scale_info::build::TypeBuilder<scale_info::form::MetaForm, scale_info::build::state::PathAssigned>", %"scale_info::build::TypeBuilder<scale_info::form::MetaForm, scale_info::build::state::PathAssigned>"* %_3, i64 0, i32 2, i32 0, i32 1
  %_8.sroa.4.0..sroa_cast.i = bitcast i64** %_8.sroa.4.0..sroa_idx33.i to %"scale_info::ty::TypeParameter"**
  %_8.sroa.4.0.copyload.i = load %"scale_info::ty::TypeParameter"*, %"scale_info::ty::TypeParameter"** %_8.sroa.4.0..sroa_cast.i, align 8, !alias.scope !166, !noalias !168
  %_8.sroa.5.0..sroa_idx35.i = getelementptr inbounds %"scale_info::build::TypeBuilder<scale_info::form::MetaForm, scale_info::build::state::PathAssigned>", %"scale_info::build::TypeBuilder<scale_info::form::MetaForm, scale_info::build::state::PathAssigned>"* %_3, i64 0, i32 2, i32 1
  %_8.sroa.5.0.copyload.i = load i64, i64* %_8.sroa.5.0..sroa_idx35.i, align 8, !alias.scope !166, !noalias !168
  %11 = getelementptr inbounds %"scale_info::build::TypeBuilder<scale_info::form::MetaForm, scale_info::build::state::PathAssigned>", %"scale_info::build::TypeBuilder<scale_info::form::MetaForm, scale_info::build::state::PathAssigned>"* %_3, i64 0, i32 3
  %12 = bitcast %"alloc::vec::Vec<&str>"* %11 to i8*
  %13 = getelementptr inbounds %"scale_info::ty::Type", %"scale_info::ty::Type"* %0, i64 0, i32 2
  %14 = bitcast %"alloc::vec::Vec<&str>"* %13 to i8*
  call void @llvm.memcpy.p0i8.p0i8.i64(i8* noundef nonnull align 8 dereferenceable(24) %14, i8* noundef nonnull align 8 dereferenceable(24) %12, i64 24, i1 false), !alias.scope !171, !noalias !172
  tail call void @llvm.experimental.noalias.scope.decl(metadata !173)
  %_7.sroa.0.0..sroa_idx.i = getelementptr inbounds %"scale_info::ty::Type", %"scale_info::ty::Type"* %0, i64 0, i32 0, i32 0, i32 0, i32 0
  store i64 %self1.sroa.0.0.copyload.i, i64* %_7.sroa.0.0..sroa_idx.i, align 8, !alias.scope !176, !noalias !178
  %_7.sroa.4.0..sroa_idx29.i = getelementptr inbounds %"scale_info::ty::Type", %"scale_info::ty::Type"* %0, i64 0, i32 0, i32 0, i32 0, i32 1
  %_7.sroa.4.0..sroa_cast.i = bitcast i64** %_7.sroa.4.0..sroa_idx29.i to {}**
  store {}* %self1.sroa.4.0.copyload.i, {}** %_7.sroa.4.0..sroa_cast.i, align 8, !alias.scope !176, !noalias !178
  %_7.sroa.5.0..sroa_idx31.i = getelementptr inbounds %"scale_info::ty::Type", %"scale_info::ty::Type"* %0, i64 0, i32 0, i32 0, i32 1
  store i64 %self1.sroa.5.0.copyload.i, i64* %_7.sroa.5.0..sroa_idx31.i, align 8, !alias.scope !176, !noalias !178
  %15 = icmp ne %"scale_info::ty::TypeParameter"* %_8.sroa.4.0.copyload.i, null
  tail call void @llvm.assume(i1 %15)
  %16 = getelementptr %"scale_info::ty::TypeParameter", %"scale_info::ty::TypeParameter"* %_8.sroa.4.0.copyload.i, i64 0, i32 0, i32 0
  %_9.sroa.4.0.sroa_idx30.i.i = getelementptr inbounds [31 x i8], [31 x i8]* %_9.sroa.4.i.i, i64 0, i64 0
  call void @llvm.lifetime.start.p0i8(i64 31, i8* nonnull %_9.sroa.4.0.sroa_idx30.i.i)
  %_9.sroa.0.0._10.sroa.0.0._9.sroa.4.8.sroa_idx.sroa_idx.i.sroa_idx.i = getelementptr inbounds [31 x i8], [31 x i8]* %_9.sroa.4.i.i, i64 0, i64 7
  call void @llvm.memcpy.p0i8.p0i8.i64(i8* noundef nonnull align 1 dereferenceable(24) %_9.sroa.0.0._10.sroa.0.0._9.sroa.4.8.sroa_idx.sroa_idx.i.sroa_idx.i, i8* noundef nonnull align 8 dereferenceable(24) %3, i64 24, i1 false), !noalias !171
  %_6.sroa.0.0..sroa_idx.i.i = getelementptr inbounds %"scale_info::ty::Type", %"scale_info::ty::Type"* %0, i64 0, i32 1, i32 0, i32 0
  store i64 %_8.sroa.0.0.copyload.i, i64* %_6.sroa.0.0..sroa_idx.i.i, align 8, !alias.scope !182, !noalias !183
  %_6.sroa.4.0..sroa_idx41.i.i = getelementptr inbounds %"scale_info::ty::Type", %"scale_info::ty::Type"* %0, i64 0, i32 1, i32 0, i32 1
  store i64* %16, i64** %_6.sroa.4.0..sroa_idx41.i.i, align 8, !alias.scope !182, !noalias !183
  %_6.sroa.5.0..sroa_idx43.i.i = getelementptr inbounds %"scale_info::ty::Type", %"scale_info::ty::Type"* %0, i64 0, i32 1, i32 1
  store i64 %_8.sroa.5.0.copyload.i, i64* %_6.sroa.5.0..sroa_idx43.i.i, align 8, !alias.scope !182, !noalias !183
  %_9.sroa.0.0..sroa_idx.i.i = getelementptr inbounds %"scale_info::ty::Type", %"scale_info::ty::Type"* %0, i64 0, i32 3, i32 0
  store i8 1, i8* %_9.sroa.0.0..sroa_idx.i.i, align 8, !alias.scope !182, !noalias !183
  %_9.sroa.4.0..sroa_idx.i.i = getelementptr inbounds %"scale_info::ty::Type", %"scale_info::ty::Type"* %0, i64 0, i32 3, i32 1, i64 0
  call void @llvm.memcpy.p0i8.p0i8.i64(i8* noundef nonnull align 1 dereferenceable(31) %_9.sroa.4.0..sroa_idx.i.i, i8* noundef nonnull align 1 dereferenceable(31) %_9.sroa.4.0.sroa_idx30.i.i, i64 31, i1 false), !noalias !183
  call void @llvm.lifetime.end.p0i8(i64 31, i8* nonnull %_9.sroa.4.0.sroa_idx30.i.i)
  call void @llvm.lifetime.end.p0i8(i64 24, i8* nonnull %3)
  call void @llvm.lifetime.end.p0i8(i64 72, i8* nonnull %1)
  ret void

bb3:                                              ; preds = %bb7.i
  resume { i8*, i32 } %6
}

; scale_info::impls::<impl scale_info::TypeInfo for core::result::Result<T,E>>::type_info
; Function Attrs: nonlazybind uwtable
define internal void @"_ZN10scale_info5impls84_$LT$impl$u20$scale_info..TypeInfo$u20$for$u20$core..result..Result$LT$T$C$E$GT$$GT$9type_info17h5691e97d2ab2a11eE"(%"scale_info::ty::Type"* noalias nocapture noundef sret(%"scale_info::ty::Type") dereferenceable(112) %0) unnamed_addr #0 personality i32 (i32, i32, i64, %"unwind::libunwind::_Unwind_Exception"*, %"unwind::libunwind::_Unwind_Context"*)* @rust_eh_personality {
start:
  %_3.i1.i29 = alloca %"alloc::vec::Vec<scale_info::ty::fields::Field>", align 8
  %_8.i.i.i.i30 = alloca %"scale_info::ty::fields::Field", align 8
  %_8.i.i.i31 = alloca %"scale_info::ty::fields::Field", align 8
  %_7.i.i.i32 = alloca %"scale_info::build::FieldsBuilder<scale_info::form::MetaForm, scale_info::build::UnnamedFields>", align 8
  %_3.i.i33 = alloca %"scale_info::build::VariantBuilder<scale_info::form::MetaForm, scale_info::build::variant_state::IndexAssigned>", align 8
  %_12.i34 = alloca %"scale_info::build::VariantBuilder<scale_info::form::MetaForm, scale_info::build::variant_state::IndexAssigned>", align 8
  %_11.i35 = alloca %"scale_info::ty::variant::Variant", align 8
  %builder1.i36 = alloca %"scale_info::build::VariantBuilder<scale_info::form::MetaForm, scale_info::build::variant_state::IndexAssigned>", align 8
  %_3.i1.i = alloca %"alloc::vec::Vec<scale_info::ty::fields::Field>", align 8
  %_8.i.i.i.i = alloca %"scale_info::ty::fields::Field", align 8
  %_8.i.i.i = alloca %"scale_info::ty::fields::Field", align 8
  %_7.i.i.i = alloca %"scale_info::build::FieldsBuilder<scale_info::form::MetaForm, scale_info::build::UnnamedFields>", align 8
  %_3.i.i = alloca %"scale_info::build::VariantBuilder<scale_info::form::MetaForm, scale_info::build::variant_state::IndexAssigned>", align 8
  %_12.i = alloca %"scale_info::build::VariantBuilder<scale_info::form::MetaForm, scale_info::build::variant_state::IndexAssigned>", align 8
  %_11.i = alloca %"scale_info::ty::variant::Variant", align 8
  %builder1.i = alloca %"scale_info::build::VariantBuilder<scale_info::form::MetaForm, scale_info::build::variant_state::IndexAssigned>", align 8
  %_20 = alloca %"scale_info::build::Variants", align 8
  %_19 = alloca %"scale_info::build::Variants", align 8
  %_18 = alloca %"scale_info::build::Variants", align 8
  %_15 = alloca %"scale_info::ty::TypeParameter", align 8
  %_12 = alloca %"scale_info::ty::TypeParameter", align 8
  %_4 = alloca %"scale_info::ty::path::Path", align 8
  %_3 = alloca %"scale_info::build::TypeBuilder", align 8
  %_2 = alloca %"scale_info::build::TypeBuilder<scale_info::form::MetaForm, scale_info::build::state::PathAssigned>", align 8
  %_1 = alloca %"scale_info::build::TypeBuilder<scale_info::form::MetaForm, scale_info::build::state::PathAssigned>", align 8
  %1 = bitcast %"scale_info::build::TypeBuilder<scale_info::form::MetaForm, scale_info::build::state::PathAssigned>"* %_1 to i8*
  call void @llvm.lifetime.start.p0i8(i64 72, i8* nonnull %1)
  %2 = bitcast %"scale_info::build::TypeBuilder<scale_info::form::MetaForm, scale_info::build::state::PathAssigned>"* %_2 to i8*
  call void @llvm.lifetime.start.p0i8(i64 72, i8* nonnull %2)
  %3 = bitcast %"scale_info::build::TypeBuilder"* %_3 to i8*
  call void @llvm.lifetime.start.p0i8(i64 72, i8* nonnull %3)
; call scale_info::ty::Type::builder
  call void @_ZN10scale_info2ty4Type7builder17h3359f1615f98039cE(%"scale_info::build::TypeBuilder"* noalias nocapture noundef nonnull sret(%"scale_info::build::TypeBuilder") dereferenceable(72) %_3)
  %4 = bitcast %"scale_info::ty::path::Path"* %_4 to i8*
  call void @llvm.lifetime.start.p0i8(i64 24, i8* nonnull %4)
; invoke scale_info::ty::path::Path::prelude
  invoke void @_ZN10scale_info2ty4path4Path7prelude17hd62fcf5c5d51fce0E(%"scale_info::ty::path::Path"* noalias nocapture noundef nonnull sret(%"scale_info::ty::path::Path") dereferenceable(24) %_4, [0 x i8]* noalias noundef nonnull readonly align 1 bitcast (<{ [6 x i8] }>* @alloc1353 to [0 x i8]*), i64 noundef 6)
          to label %bb2 unwind label %bb20

bb2:                                              ; preds = %start
  tail call void @llvm.experimental.noalias.scope.decl(metadata !184)
  tail call void @llvm.experimental.noalias.scope.decl(metadata !187)
  tail call void @llvm.experimental.noalias.scope.decl(metadata !189)
  call void @llvm.memcpy.p0i8.p0i8.i64(i8* noundef nonnull align 8 dereferenceable(24) %2, i8* noundef nonnull align 8 dereferenceable(24) %4, i64 24, i1 false), !alias.scope !191, !noalias !187
  %5 = getelementptr inbounds %"scale_info::build::TypeBuilder", %"scale_info::build::TypeBuilder"* %_3, i64 0, i32 2
  %6 = bitcast %"alloc::vec::Vec<scale_info::ty::TypeParameter>"* %5 to i8*
  %7 = getelementptr inbounds %"scale_info::build::TypeBuilder<scale_info::form::MetaForm, scale_info::build::state::PathAssigned>", %"scale_info::build::TypeBuilder<scale_info::form::MetaForm, scale_info::build::state::PathAssigned>"* %_2, i64 0, i32 2
  %8 = bitcast %"alloc::vec::Vec<scale_info::ty::TypeParameter>"* %7 to i8*
  call void @llvm.memcpy.p0i8.p0i8.i64(i8* noundef nonnull align 8 dereferenceable(24) %8, i8* noundef nonnull align 8 dereferenceable(24) %6, i64 24, i1 false), !alias.scope !192, !noalias !189
  %9 = getelementptr inbounds %"scale_info::build::TypeBuilder", %"scale_info::build::TypeBuilder"* %_3, i64 0, i32 3
  %10 = bitcast %"alloc::vec::Vec<&str>"* %9 to i8*
  %11 = getelementptr inbounds %"scale_info::build::TypeBuilder<scale_info::form::MetaForm, scale_info::build::state::PathAssigned>", %"scale_info::build::TypeBuilder<scale_info::form::MetaForm, scale_info::build::state::PathAssigned>"* %_2, i64 0, i32 3
  %12 = bitcast %"alloc::vec::Vec<&str>"* %11 to i8*
  call void @llvm.memcpy.p0i8.p0i8.i64(i8* noundef nonnull align 8 dereferenceable(24) %12, i8* noundef nonnull align 8 dereferenceable(24) %10, i64 24, i1 false), !alias.scope !192, !noalias !189
  %13 = getelementptr inbounds %"scale_info::build::TypeBuilder", %"scale_info::build::TypeBuilder"* %_3, i64 0, i32 1, i32 1
  %14 = load {}*, {}** %13, align 8, !alias.scope !187, !noalias !191, !noundef !59
  %15 = icmp eq {}* %14, null
  %16 = bitcast {}* %14 to i8*
  br i1 %15, label %bb3, label %bb2.i.i

bb2.i.i:                                          ; preds = %bb2
  tail call void @llvm.experimental.noalias.scope.decl(metadata !193) #26
  %17 = bitcast %"scale_info::build::TypeBuilder"* %_3 to i64*
  %_4.i.i.i.i.i.i.i = load i64, i64* %17, align 8, !alias.scope !196, !noalias !199, !noundef !59
  %_3.i.i.i.i.i.i.i = icmp eq i64 %_4.i.i.i.i.i.i.i, 0
  br i1 %_3.i.i.i.i.i.i.i, label %bb3, label %bb2.i.i.i.i.i.i

bb2.i.i.i.i.i.i:                                  ; preds = %bb2.i.i
  %_6.i.i.i.i.i.i.i.i = icmp ult i64 %_4.i.i.i.i.i.i.i, 576460752303423488
  %array_size.i.i.i.i.i.i.i.i = shl nuw nsw i64 %_4.i.i.i.i.i.i.i, 4
  tail call void @llvm.assume(i1 %_6.i.i.i.i.i.i.i.i) #26
  tail call void @__rust_dealloc(i8* noundef nonnull %16, i64 noundef %array_size.i.i.i.i.i.i.i.i, i64 noundef 8) #26, !noalias !201
  br label %bb3

bb3:                                              ; preds = %bb2.i.i.i.i.i.i, %bb2.i.i, %bb2
  call void @llvm.lifetime.end.p0i8(i64 24, i8* nonnull %4)
  call void @llvm.lifetime.end.p0i8(i64 72, i8* nonnull %3)
  %18 = tail call noundef i8* @__rust_alloc(i64 noundef 64, i64 noundef 8) #26
  %19 = icmp eq i8* %18, null
  br i1 %19, label %bb1.i, label %bb5

bb1.i:                                            ; preds = %bb3
; invoke alloc::alloc::handle_alloc_error
  invoke void @_ZN5alloc5alloc18handle_alloc_error17h54308f7b8b227d87E(i64 noundef 64, i64 noundef 8) #25
          to label %.noexc unwind label %bb19.thread128

.noexc:                                           ; preds = %bb1.i
  unreachable

bb14:                                             ; preds = %bb15, %bb18, %bb20
  %.pn20 = phi { i8*, i32 } [ %eh.lpad-body28.ph, %bb15 ], [ %.pn127, %bb18 ], [ %20, %bb20 ]
  resume { i8*, i32 } %.pn20

bb20:                                             ; preds = %start
  %20 = landingpad { i8*, i32 }
          cleanup
  invoke fastcc void bitcast (void (%"scale_info::build::TypeBuilder<scale_info::form::MetaForm, scale_info::build::state::PathAssigned>"*)* @"_ZN4core3ptr126drop_in_place$LT$scale_info..build..TypeBuilder$LT$scale_info..form..MetaForm$C$scale_info..build..state..PathAssigned$GT$$GT$17hdeb593293d6bc2e2E" to void (%"scale_info::build::TypeBuilder"*)*)(%"scale_info::build::TypeBuilder"* noundef nonnull %_3) #27
          to label %bb14 unwind label %abort

abort:                                            ; preds = %bb15, %bb18, %bb20
  %21 = landingpad { i8*, i32 }
          cleanup
; call core::panicking::panic_cannot_unwind
  call void @_ZN4core9panicking19panic_cannot_unwind17h4d963c01e40eff8cE() #28
  unreachable

bb19.thread128:                                   ; preds = %bb1.i
  %22 = landingpad { i8*, i32 }
          cleanup
  br label %bb18

cleanup2:                                         ; preds = %bb7, %bb5
  %23 = landingpad { i8*, i32 }
          cleanup
  %24 = bitcast i8* %18 to i64*
; call alloc::alloc::box_free
  tail call fastcc void @_ZN5alloc5alloc8box_free17h2267841298281455E(i64* noundef nonnull %24) #27
  br label %bb18

bb5:                                              ; preds = %bb3
  %25 = bitcast %"scale_info::ty::TypeParameter"* %_12 to i8*
  call void @llvm.lifetime.start.p0i8(i64 32, i8* nonnull %25)
; invoke scale_info::ty::TypeParameter::new
  invoke void @_ZN10scale_info2ty13TypeParameter3new17h9c6171b6a8edce2cE(%"scale_info::ty::TypeParameter"* noalias nocapture noundef nonnull sret(%"scale_info::ty::TypeParameter") dereferenceable(32) %_12, [0 x i8]* noalias noundef nonnull readonly align 1 bitcast (<{ [1 x i8] }>* @alloc1354 to [0 x i8]*), i64 noundef 1, i64 -1017276053736645385, i64* noundef bitcast (void (%"scale_info::ty::Type"*)* @"_ZN10scale_info5impls59_$LT$impl$u20$scale_info..TypeInfo$u20$for$u20$$LP$$RP$$GT$9type_info17h9af1fda414446e67E" to i64*))
          to label %bb7 unwind label %cleanup2

bb7:                                              ; preds = %bb5
  %26 = bitcast %"scale_info::ty::TypeParameter"* %_15 to i8*
  call void @llvm.lifetime.start.p0i8(i64 32, i8* nonnull %26)
; invoke scale_info::ty::TypeParameter::new
  invoke void @_ZN10scale_info2ty13TypeParameter3new17h9c6171b6a8edce2cE(%"scale_info::ty::TypeParameter"* noalias nocapture noundef nonnull sret(%"scale_info::ty::TypeParameter") dereferenceable(32) %_15, [0 x i8]* noalias noundef nonnull readonly align 1 bitcast (<{ [1 x i8] }>* @alloc1355 to [0 x i8]*), i64 noundef 1, i64 -7044183350801047663, i64* noundef bitcast (void (%"scale_info::ty::Type"*)* @"_ZN14ink_primitives1_76_$LT$impl$u20$scale_info..TypeInfo$u20$for$u20$ink_primitives..LangError$GT$9type_info17hdc478b50333345e5E" to i64*))
          to label %bb2.i unwind label %cleanup2

bb2.i:                                            ; preds = %bb7
  call void @llvm.memcpy.p0i8.p0i8.i64(i8* noundef nonnull align 8 dereferenceable(32) %18, i8* noundef nonnull align 8 dereferenceable(32) %25, i64 32, i1 false)
  %27 = getelementptr inbounds i8, i8* %18, i64 32
  call void @llvm.memcpy.p0i8.p0i8.i64(i8* noundef nonnull align 8 dereferenceable(32) %27, i8* noundef nonnull align 8 dereferenceable(32) %26, i64 32, i1 false)
  call void @llvm.lifetime.end.p0i8(i64 32, i8* nonnull %26)
  call void @llvm.lifetime.end.p0i8(i64 32, i8* nonnull %25)
  tail call void @llvm.experimental.noalias.scope.decl(metadata !202)
  tail call void @llvm.experimental.noalias.scope.decl(metadata !205)
  tail call void @llvm.experimental.noalias.scope.decl(metadata !207) #26
  %28 = getelementptr inbounds %"alloc::vec::Vec<scale_info::ty::TypeParameter>", %"alloc::vec::Vec<scale_info::ty::TypeParameter>"* %7, i64 0, i32 0, i32 0
  %_4.i.i.i.i.i = load i64, i64* %28, align 8, !alias.scope !210, !noalias !213, !noundef !59
  %_3.i.i.i.i.i = icmp eq i64 %_4.i.i.i.i.i, 0
  br i1 %_3.i.i.i.i.i, label %bb10, label %bb2.i.i.i.i

bb2.i.i.i.i:                                      ; preds = %bb2.i
  %_6.i.i.i.i.i.i = icmp ult i64 %_4.i.i.i.i.i, 288230376151711744
  %array_size.i.i.i.i.i.i = shl nuw nsw i64 %_4.i.i.i.i.i, 5
  tail call void @llvm.assume(i1 %_6.i.i.i.i.i.i) #26
  %29 = getelementptr inbounds %"scale_info::build::TypeBuilder<scale_info::form::MetaForm, scale_info::build::state::PathAssigned>", %"scale_info::build::TypeBuilder<scale_info::form::MetaForm, scale_info::build::state::PathAssigned>"* %_2, i64 0, i32 2, i32 0, i32 1
  %30 = bitcast i64** %29 to i8**
  %self11011.i.i.i.i.i = load i8*, i8** %30, align 8, !alias.scope !210, !noalias !213, !nonnull !59
  tail call void @__rust_dealloc(i8* noundef nonnull %self11011.i.i.i.i.i, i64 noundef %array_size.i.i.i.i.i.i, i64 noundef 8) #26, !noalias !216
  br label %bb10

bb18:                                             ; preds = %cleanup2, %bb19.thread128
  %.pn127 = phi { i8*, i32 } [ %22, %bb19.thread128 ], [ %23, %cleanup2 ]
; invoke core::ptr::drop_in_place<scale_info::build::TypeBuilder<scale_info::form::MetaForm,scale_info::build::state::PathAssigned>>
  invoke fastcc void @"_ZN4core3ptr126drop_in_place$LT$scale_info..build..TypeBuilder$LT$scale_info..form..MetaForm$C$scale_info..build..state..PathAssigned$GT$$GT$17hdeb593293d6bc2e2E"(%"scale_info::build::TypeBuilder<scale_info::form::MetaForm, scale_info::build::state::PathAssigned>"* noundef nonnull %_2) #27
          to label %bb14 unwind label %abort

bb10:                                             ; preds = %bb2.i, %bb2.i.i.i.i
  %_3.i.sroa.0.0..sroa_idx = getelementptr inbounds %"scale_info::build::TypeBuilder<scale_info::form::MetaForm, scale_info::build::state::PathAssigned>", %"scale_info::build::TypeBuilder<scale_info::form::MetaForm, scale_info::build::state::PathAssigned>"* %_2, i64 0, i32 2, i32 0, i32 0
  store i64 2, i64* %_3.i.sroa.0.0..sroa_idx, align 8, !noalias !217
  %_3.i.sroa.5.0..sroa_idx111 = getelementptr inbounds %"scale_info::build::TypeBuilder<scale_info::form::MetaForm, scale_info::build::state::PathAssigned>", %"scale_info::build::TypeBuilder<scale_info::form::MetaForm, scale_info::build::state::PathAssigned>"* %_2, i64 0, i32 2, i32 0, i32 1
  %31 = bitcast i64** %_3.i.sroa.5.0..sroa_idx111 to i8**
  store i8* %18, i8** %31, align 8, !noalias !217
  %_3.i.sroa.6.0..sroa_idx115 = getelementptr inbounds %"scale_info::build::TypeBuilder<scale_info::form::MetaForm, scale_info::build::state::PathAssigned>", %"scale_info::build::TypeBuilder<scale_info::form::MetaForm, scale_info::build::state::PathAssigned>"* %_2, i64 0, i32 2, i32 1
  store i64 2, i64* %_3.i.sroa.6.0..sroa_idx115, align 8, !noalias !217
  call void @llvm.memcpy.p0i8.p0i8.i64(i8* noundef nonnull align 8 dereferenceable(72) %1, i8* noundef nonnull align 8 dereferenceable(72) %2, i64 72, i1 false), !alias.scope !218, !noalias !219
  call void @llvm.lifetime.end.p0i8(i64 72, i8* nonnull %2)
  %32 = bitcast %"scale_info::build::Variants"* %_18 to i8*
  call void @llvm.lifetime.start.p0i8(i64 24, i8* nonnull %32)
  %33 = bitcast %"scale_info::build::Variants"* %_19 to i8*
  call void @llvm.lifetime.start.p0i8(i64 24, i8* nonnull %33)
  %34 = bitcast %"scale_info::build::Variants"* %_20 to i8*
  call void @llvm.lifetime.start.p0i8(i64 24, i8* nonnull %34)
  tail call void @llvm.experimental.noalias.scope.decl(metadata !220)
  %_2.1.i = load i64*, i64** bitcast (i8* getelementptr inbounds (<{ [16 x i8] }>, <{ [16 x i8] }>* @0, i64 0, i32 0, i64 8) to i64**), align 8, !noalias !220, !nonnull !59, !noundef !59
  %_1.sroa.0.0..sroa_idx.i = getelementptr inbounds %"scale_info::build::Variants", %"scale_info::build::Variants"* %_20, i64 0, i32 0, i32 0, i32 0
  store i64 0, i64* %_1.sroa.0.0..sroa_idx.i, align 8, !alias.scope !220
  %_1.sroa.4.0..sroa_idx2.i = getelementptr inbounds %"scale_info::build::Variants", %"scale_info::build::Variants"* %_20, i64 0, i32 0, i32 0, i32 1
  store i64* %_2.1.i, i64** %_1.sroa.4.0..sroa_idx2.i, align 8, !alias.scope !220
  %_1.sroa.5.0..sroa_idx4.i = getelementptr inbounds %"scale_info::build::Variants", %"scale_info::build::Variants"* %_20, i64 0, i32 0, i32 1
  store i64 0, i64* %_1.sroa.5.0..sroa_idx4.i, align 8, !alias.scope !220
  tail call void @llvm.experimental.noalias.scope.decl(metadata !223)
  tail call void @llvm.experimental.noalias.scope.decl(metadata !226)
  %35 = bitcast %"scale_info::build::VariantBuilder<scale_info::form::MetaForm, scale_info::build::variant_state::IndexAssigned>"* %builder1.i to i8*
  call void @llvm.lifetime.start.p0i8(i64 88, i8* nonnull %35)
  %36 = bitcast %"scale_info::build::VariantBuilder<scale_info::form::MetaForm, scale_info::build::variant_state::IndexAssigned>"* %_3.i.i to i8*
  call void @llvm.lifetime.start.p0i8(i64 88, i8* nonnull %36), !noalias !228
  %_6.sroa.7.sroa.0.0._6.sroa.7.32._4.sroa.7.32..sroa_idx54.i.sroa_cast.sroa_idx.i = getelementptr inbounds %"scale_info::build::VariantBuilder<scale_info::form::MetaForm, scale_info::build::variant_state::IndexAssigned>", %"scale_info::build::VariantBuilder<scale_info::form::MetaForm, scale_info::build::variant_state::IndexAssigned>"* %_3.i.i, i64 0, i32 3, i32 0, i32 0
  store i64 0, i64* %_6.sroa.7.sroa.0.0._6.sroa.7.32._4.sroa.7.32..sroa_idx54.i.sroa_cast.sroa_idx.i, align 8, !noalias !232
  %_6.sroa.7.sroa.4.0._6.sroa.7.32._4.sroa.7.32..sroa_idx54.i.sroa_cast.sroa_idx66.i = getelementptr inbounds %"scale_info::build::VariantBuilder<scale_info::form::MetaForm, scale_info::build::variant_state::IndexAssigned>", %"scale_info::build::VariantBuilder<scale_info::form::MetaForm, scale_info::build::variant_state::IndexAssigned>"* %_3.i.i, i64 0, i32 3, i32 0, i32 1
  store i64* %_2.1.i, i64** %_6.sroa.7.sroa.4.0._6.sroa.7.32._4.sroa.7.32..sroa_idx54.i.sroa_cast.sroa_idx66.i, align 8, !noalias !232
  %_6.sroa.7.sroa.5.0._6.sroa.7.32._4.sroa.7.32..sroa_idx54.i.sroa_cast.sroa_idx68.i = getelementptr inbounds %"scale_info::build::VariantBuilder<scale_info::form::MetaForm, scale_info::build::variant_state::IndexAssigned>", %"scale_info::build::VariantBuilder<scale_info::form::MetaForm, scale_info::build::variant_state::IndexAssigned>"* %_3.i.i, i64 0, i32 3, i32 1
  %_6.sroa.8.sroa.4.0._6.sroa.8.56._4.sroa.8.56..sroa_idx55.i.sroa_cast.sroa_idx56.i = getelementptr inbounds %"scale_info::build::VariantBuilder<scale_info::form::MetaForm, scale_info::build::variant_state::IndexAssigned>", %"scale_info::build::VariantBuilder<scale_info::form::MetaForm, scale_info::build::variant_state::IndexAssigned>"* %_3.i.i, i64 0, i32 4, i32 0, i32 1
  %37 = bitcast i64* %_6.sroa.7.sroa.5.0._6.sroa.7.32._4.sroa.7.32..sroa_idx54.i.sroa_cast.sroa_idx68.i to i8*
  call void @llvm.memset.p0i8.i64(i8* noundef nonnull align 8 dereferenceable(16) %37, i8 0, i64 16, i1 false), !noalias !233
  store i64* %_2.1.i, i64** %_6.sroa.8.sroa.4.0._6.sroa.8.56._4.sroa.8.56..sroa_idx55.i.sroa_cast.sroa_idx56.i, align 8, !noalias !232
  %_6.sroa.8.sroa.5.0._6.sroa.8.56._4.sroa.8.56..sroa_idx55.i.sroa_cast.sroa_idx58.i = getelementptr inbounds %"scale_info::build::VariantBuilder<scale_info::form::MetaForm, scale_info::build::variant_state::IndexAssigned>", %"scale_info::build::VariantBuilder<scale_info::form::MetaForm, scale_info::build::variant_state::IndexAssigned>"* %_3.i.i, i64 0, i32 4, i32 1
  store i64 0, i64* %_6.sroa.8.sroa.5.0._6.sroa.8.56._4.sroa.8.56..sroa_idx55.i.sroa_cast.sroa_idx58.i, align 8, !noalias !232
  %38 = bitcast %"scale_info::build::VariantBuilder<scale_info::form::MetaForm, scale_info::build::variant_state::IndexAssigned>"* %_3.i.i to [0 x i8]**
  store [0 x i8]* bitcast (<{ [2 x i8] }>* @alloc1356 to [0 x i8]*), [0 x i8]** %38, align 8, !alias.scope !234, !noalias !237
  %39 = getelementptr inbounds %"scale_info::build::VariantBuilder<scale_info::form::MetaForm, scale_info::build::variant_state::IndexAssigned>", %"scale_info::build::VariantBuilder<scale_info::form::MetaForm, scale_info::build::variant_state::IndexAssigned>"* %_3.i.i, i64 0, i32 1, i32 1
  store i64 2, i64* %39, align 8, !alias.scope !234, !noalias !237
  %40 = getelementptr inbounds %"scale_info::build::VariantBuilder<scale_info::form::MetaForm, scale_info::build::variant_state::IndexAssigned>", %"scale_info::build::VariantBuilder<scale_info::form::MetaForm, scale_info::build::variant_state::IndexAssigned>"* %_3.i.i, i64 0, i32 5, i32 0
  store i8 1, i8* %40, align 8, !alias.scope !234, !noalias !237
  %41 = getelementptr inbounds %"scale_info::build::VariantBuilder<scale_info::form::MetaForm, scale_info::build::variant_state::IndexAssigned>", %"scale_info::build::VariantBuilder<scale_info::form::MetaForm, scale_info::build::variant_state::IndexAssigned>"* %_3.i.i, i64 0, i32 5, i32 1
  store i8 0, i8* %41, align 1, !alias.scope !234, !noalias !237
  %42 = getelementptr inbounds %"scale_info::build::VariantBuilder<scale_info::form::MetaForm, scale_info::build::variant_state::IndexAssigned>", %"scale_info::build::VariantBuilder<scale_info::form::MetaForm, scale_info::build::variant_state::IndexAssigned>"* %_3.i.i, i64 0, i32 2, i32 0
  store i64 0, i64* %42, align 8, !alias.scope !234, !noalias !237
  %43 = bitcast %"scale_info::build::FieldsBuilder<scale_info::form::MetaForm, scale_info::build::UnnamedFields>"* %_7.i.i.i to i8*
  call void @llvm.lifetime.start.p0i8(i64 24, i8* nonnull %43), !noalias !239
  %_6.sroa.0.0..sroa_cast.i.i = bitcast %"scale_info::build::FieldsBuilder<scale_info::form::MetaForm, scale_info::build::UnnamedFields>"* %_7.i.i.i to i64*
  store i64 0, i64* %_6.sroa.0.0..sroa_cast.i.i, align 8, !noalias !243
  %_6.sroa.5.0..sroa_idx31.i.i = getelementptr inbounds %"scale_info::build::FieldsBuilder<scale_info::form::MetaForm, scale_info::build::UnnamedFields>", %"scale_info::build::FieldsBuilder<scale_info::form::MetaForm, scale_info::build::UnnamedFields>"* %_7.i.i.i, i64 0, i32 1, i32 0, i32 1
  store i64* %_2.1.i, i64** %_6.sroa.5.0..sroa_idx31.i.i, align 8, !noalias !243
  %_6.sroa.6.0..sroa_idx35.i.i = getelementptr inbounds %"scale_info::build::FieldsBuilder<scale_info::form::MetaForm, scale_info::build::UnnamedFields>", %"scale_info::build::FieldsBuilder<scale_info::form::MetaForm, scale_info::build::UnnamedFields>"* %_7.i.i.i, i64 0, i32 1, i32 1
  store i64 0, i64* %_6.sroa.6.0..sroa_idx35.i.i, align 8, !noalias !243
  %44 = bitcast %"scale_info::ty::fields::Field"* %_8.i.i.i to i8*
  call void @llvm.lifetime.start.p0i8(i64 72, i8* nonnull %44), !noalias !239
  tail call void @llvm.experimental.noalias.scope.decl(metadata !244)
  %_9.sroa.687.48..sroa_idx.i.i.i = getelementptr inbounds %"scale_info::ty::fields::Field", %"scale_info::ty::fields::Field"* %_8.i.i.i, i64 0, i32 3, i32 0, i32 0
  store i64 0, i64* %_9.sroa.687.48..sroa_idx.i.i.i, align 8, !alias.scope !247, !noalias !239
  %_9.sroa.8.48..sroa_idx90.i.i.i = getelementptr inbounds %"scale_info::ty::fields::Field", %"scale_info::ty::fields::Field"* %_8.i.i.i, i64 0, i32 3, i32 0, i32 1
  store i64* %_2.1.i, i64** %_9.sroa.8.48..sroa_idx90.i.i.i, align 8, !alias.scope !247, !noalias !239
  %_9.sroa.9.48..sroa_idx92.i.i.i = getelementptr inbounds %"scale_info::ty::fields::Field", %"scale_info::ty::fields::Field"* %_8.i.i.i, i64 0, i32 3, i32 1
  store i64 0, i64* %_9.sroa.9.48..sroa_idx92.i.i.i, align 8, !alias.scope !247, !noalias !239
  %45 = getelementptr inbounds %"scale_info::ty::fields::Field", %"scale_info::ty::fields::Field"* %_8.i.i.i, i64 0, i32 0, i32 0
  store i8* null, i8** %45, align 8, !alias.scope !249, !noalias !252
  %46 = getelementptr inbounds %"scale_info::ty::fields::Field", %"scale_info::ty::fields::Field"* %_8.i.i.i, i64 0, i32 2, i32 0
  store i64 -1017276053736645385, i64* %46, align 8, !alias.scope !249, !noalias !252
  %47 = getelementptr inbounds %"scale_info::ty::fields::Field", %"scale_info::ty::fields::Field"* %_8.i.i.i, i64 0, i32 2, i32 1
  store i64* bitcast (void (%"scale_info::ty::Type"*)* @"_ZN10scale_info5impls59_$LT$impl$u20$scale_info..TypeInfo$u20$for$u20$$LP$$RP$$GT$9type_info17h9af1fda414446e67E" to i64*), i64** %47, align 8, !alias.scope !249, !noalias !252
  %48 = getelementptr inbounds %"scale_info::ty::fields::Field", %"scale_info::ty::fields::Field"* %_8.i.i.i, i64 0, i32 1, i32 0
  store i8* null, i8** %48, align 8, !alias.scope !249, !noalias !252
  tail call void @llvm.experimental.noalias.scope.decl(metadata !256)
  tail call void @llvm.experimental.noalias.scope.decl(metadata !259)
  %_5.i.i.i.i = getelementptr inbounds %"scale_info::ty::fields::Field", %"scale_info::ty::fields::Field"* %_8.i.i.i, i64 0, i32 2
; invoke scale_info::meta_type::MetaType::is_phantom
  %_4.i.i.i.i = invoke noundef zeroext i1 @_ZN10scale_info9meta_type8MetaType10is_phantom17hc147d9272919729eE({ i64, i64* }* noalias noundef nonnull readonly align 8 dereferenceable(16) %_5.i.i.i.i)
          to label %bb1.i.i.i.i unwind label %bb9.i11.i.i.i, !noalias !261

cleanup.body.i:                                   ; preds = %cleanup.i.i, %bb8.i.i, %bb6.i.i
  %eh.lpad-body.i = phi { i8*, i32 } [ %.pn.ph.i.i.i.i, %bb6.i.i ], [ %68, %bb8.i.i ], [ %82, %cleanup.i.i ]
; invoke core::ptr::drop_in_place<scale_info::build::Variants>
  invoke fastcc void @"_ZN4core3ptr48drop_in_place$LT$scale_info..build..Variants$GT$17h969a766fc647e422E"(%"scale_info::build::Variants"* noundef nonnull %_20) #27
          to label %bb15 unwind label %abort.i27, !noalias !223

bb1.i.i.i.i:                                      ; preds = %bb10
  br i1 %_4.i.i.i.i, label %bb8.i.i.i.i, label %bb1.i16.i.i.i

bb1.i16.i.i.i:                                    ; preds = %bb1.i.i.i.i
  %49 = bitcast %"scale_info::ty::fields::Field"* %_8.i.i.i.i to i8*
  call void @llvm.lifetime.start.p0i8(i64 72, i8* nonnull %49), !noalias !262
  call void @llvm.memcpy.p0i8.p0i8.i64(i8* noundef nonnull align 8 dereferenceable(72) %49, i8* noundef nonnull align 8 dereferenceable(72) %44, i64 72, i1 false), !noalias !261
  call void @llvm.experimental.noalias.scope.decl(metadata !264)
  %self1.i.i.i.i = bitcast %"scale_info::build::FieldsBuilder<scale_info::form::MetaForm, scale_info::build::UnnamedFields>"* %_7.i.i.i to { i64, i64* }*
; invoke alloc::raw_vec::RawVec<T,A>::reserve_for_push
  invoke fastcc void @"_ZN5alloc7raw_vec19RawVec$LT$T$C$A$GT$16reserve_for_push17h9a7fc05835fd945bE"({ i64, i64* }* noalias noundef nonnull align 8 dereferenceable(16) %self1.i.i.i.i, i64 noundef 0)
          to label %bb3.i10.i.i.i unwind label %cleanup.i17.i.i.i, !noalias !267

cleanup.i17.i.i.i:                                ; preds = %bb1.i16.i.i.i
  %50 = landingpad { i8*, i32 }
          cleanup
  br label %bb6.i.i

bb3.i10.i.i.i:                                    ; preds = %bb1.i16.i.i.i
  %count.pre.i.i.i.i = load i64, i64* %_6.sroa.6.0..sroa_idx35.i.i, align 8, !alias.scope !264, !noalias !267
  %51 = bitcast i64** %_6.sroa.5.0..sroa_idx31.i.i to %"scale_info::ty::fields::Field"**
  %self313.i.i.i.i = load %"scale_info::ty::fields::Field"*, %"scale_info::ty::fields::Field"** %51, align 8, !alias.scope !264, !noalias !267, !nonnull !59
  %52 = getelementptr inbounds %"scale_info::ty::fields::Field", %"scale_info::ty::fields::Field"* %self313.i.i.i.i, i64 %count.pre.i.i.i.i
  %53 = bitcast %"scale_info::ty::fields::Field"* %52 to i8*
  call void @llvm.memcpy.p0i8.p0i8.i64(i8* noundef nonnull align 8 dereferenceable(72) %53, i8* noundef nonnull align 8 dereferenceable(72) %49, i64 72, i1 false), !noalias !269
  %54 = add i64 %count.pre.i.i.i.i, 1
  store i64 %54, i64* %_6.sroa.6.0..sroa_idx35.i.i, align 8, !alias.scope !264, !noalias !267
  call void @llvm.lifetime.end.p0i8(i64 72, i8* nonnull %49), !noalias !262
  %_5.sroa.0.sroa.0.0.copyload.i.i = load i64, i64* %_6.sroa.0.0..sroa_cast.i.i, align 8, !alias.scope !270, !noalias !271
  %55 = bitcast %"scale_info::ty::fields::Field"* %self313.i.i.i.i to i64*
  br label %bb2.i25

bb9.i11.i.i.i:                                    ; preds = %bb10
  %56 = landingpad { i8*, i32 }
          cleanup
  br label %bb6.i.i

bb8.i.i.i.i:                                      ; preds = %bb1.i.i.i.i
  call void @llvm.experimental.noalias.scope.decl(metadata !272) #26, !noalias !270
  %_4.i.i.i.i.i.i.i.i = load i64, i64* %_9.sroa.687.48..sroa_idx.i.i.i, align 8, !alias.scope !275, !noalias !278, !noundef !59
  %_3.i.i.i.i.i.i.i.i = icmp eq i64 %_4.i.i.i.i.i.i.i.i, 0
  br i1 %_3.i.i.i.i.i.i.i.i, label %bb2.i25, label %bb2.i.i.i.i.i.i.i

bb2.i.i.i.i.i.i.i:                                ; preds = %bb8.i.i.i.i
  %_6.i.i.i.i.i.i.i.i.i = icmp ult i64 %_4.i.i.i.i.i.i.i.i, 576460752303423488
  %array_size.i.i.i.i.i.i.i.i.i = shl nuw nsw i64 %_4.i.i.i.i.i.i.i.i, 4
  call void @llvm.assume(i1 %_6.i.i.i.i.i.i.i.i.i) #26, !noalias !270
  %57 = bitcast i64** %_9.sroa.8.48..sroa_idx90.i.i.i to i8**
  %self11011.i.i.i.i.i.i.i.i = load i8*, i8** %57, align 8, !alias.scope !275, !noalias !278, !nonnull !59
  call void @__rust_dealloc(i8* noundef nonnull %self11011.i.i.i.i.i.i.i.i, i64 noundef %array_size.i.i.i.i.i.i.i.i.i, i64 noundef 8) #26, !noalias !280
  br label %bb2.i25

bb6.i.i:                                          ; preds = %bb9.i11.i.i.i, %cleanup.i17.i.i.i
  %_8.i.sink.i.i.i = phi %"scale_info::ty::fields::Field"* [ %_8.i.i.i.i, %cleanup.i17.i.i.i ], [ %_8.i.i.i, %bb9.i11.i.i.i ]
  %.pn.ph.i.i.i.i = phi { i8*, i32 } [ %50, %cleanup.i17.i.i.i ], [ %56, %bb9.i11.i.i.i ]
; call core::ptr::drop_in_place<scale_info::ty::fields::Field>
  call fastcc void @"_ZN4core3ptr50drop_in_place$LT$scale_info..ty..fields..Field$GT$17h12cb7017fa87fa5cE"(%"scale_info::ty::fields::Field"* noundef nonnull %_8.i.sink.i.i.i) #27, !noalias !281
  call fastcc void bitcast (void (%"scale_info::build::FieldsBuilder<scale_info::form::MetaForm, scale_info::build::NamedFields>"*)* @"_ZN4core3ptr120drop_in_place$LT$scale_info..build..FieldsBuilder$LT$scale_info..form..MetaForm$C$scale_info..build..NamedFields$GT$$GT$17hc1dcf047f74888d8E" to void (%"scale_info::build::FieldsBuilder<scale_info::form::MetaForm, scale_info::build::UnnamedFields>"*)*)(%"scale_info::build::FieldsBuilder<scale_info::form::MetaForm, scale_info::build::UnnamedFields>"* noundef nonnull %_7.i.i.i) #27, !noalias !281
; invoke core::ptr::drop_in_place<scale_info::build::VariantBuilder<scale_info::form::MetaForm,scale_info::build::variant_state::IndexAssigned>>
  invoke fastcc void @"_ZN4core3ptr138drop_in_place$LT$scale_info..build..VariantBuilder$LT$scale_info..form..MetaForm$C$scale_info..build..variant_state..IndexAssigned$GT$$GT$17hec2fbcef90c23f4aE"(%"scale_info::build::VariantBuilder<scale_info::form::MetaForm, scale_info::build::variant_state::IndexAssigned>"* noundef nonnull %_3.i.i) #27
          to label %cleanup.body.i unwind label %abort.i.i, !noalias !228

abort.i.i:                                        ; preds = %bb6.i.i
  %58 = landingpad { i8*, i32 }
          cleanup
; call core::panicking::panic_cannot_unwind
  call void @_ZN4core9panicking19panic_cannot_unwind17h4d963c01e40eff8cE() #28, !noalias !228
  unreachable

bb2.i25:                                          ; preds = %bb2.i.i.i.i.i.i.i, %bb8.i.i.i.i, %bb3.i10.i.i.i
  %_5.sroa.0.sroa.0.0.i.i = phi i64 [ 0, %bb8.i.i.i.i ], [ 0, %bb2.i.i.i.i.i.i.i ], [ %_5.sroa.0.sroa.0.0.copyload.i.i, %bb3.i10.i.i.i ]
  %_5.sroa.0.sroa.5.0.i.i = phi i64* [ %_2.1.i, %bb8.i.i.i.i ], [ %_2.1.i, %bb2.i.i.i.i.i.i.i ], [ %55, %bb3.i10.i.i.i ]
  %_5.sroa.0.sroa.6.0.i.i = phi i64 [ 0, %bb8.i.i.i.i ], [ 0, %bb2.i.i.i.i.i.i.i ], [ %54, %bb3.i10.i.i.i ]
  call void @llvm.lifetime.end.p0i8(i64 72, i8* nonnull %44), !noalias !239
  call void @llvm.lifetime.end.p0i8(i64 24, i8* nonnull %43), !noalias !239
  call void @llvm.experimental.noalias.scope.decl(metadata !282)
  call void @llvm.experimental.noalias.scope.decl(metadata !285)
  store i64 %_5.sroa.0.sroa.0.0.i.i, i64* %_6.sroa.7.sroa.0.0._6.sroa.7.32._4.sroa.7.32..sroa_idx54.i.sroa_cast.sroa_idx.i, align 8, !alias.scope !287, !noalias !289
  store i64* %_5.sroa.0.sroa.5.0.i.i, i64** %_6.sroa.7.sroa.4.0._6.sroa.7.32._4.sroa.7.32..sroa_idx54.i.sroa_cast.sroa_idx66.i, align 8, !alias.scope !287, !noalias !289
  store i64 %_5.sroa.0.sroa.6.0.i.i, i64* %_6.sroa.7.sroa.5.0._6.sroa.7.32._4.sroa.7.32..sroa_idx54.i.sroa_cast.sroa_idx68.i, align 8, !alias.scope !287, !noalias !289
  call void @llvm.memcpy.p0i8.p0i8.i64(i8* noundef nonnull align 8 dereferenceable(88) %35, i8* noundef nonnull align 8 dereferenceable(88) %36, i64 88, i1 false), !alias.scope !290, !noalias !291
  call void @llvm.lifetime.end.p0i8(i64 88, i8* nonnull %36), !noalias !228
  %59 = bitcast %"scale_info::ty::variant::Variant"* %_11.i to i8*
  call void @llvm.lifetime.start.p0i8(i64 72, i8* nonnull %59), !noalias !233
  %60 = bitcast %"scale_info::build::VariantBuilder<scale_info::form::MetaForm, scale_info::build::variant_state::IndexAssigned>"* %_12.i to i8*
  call void @llvm.lifetime.start.p0i8(i64 88, i8* nonnull %60), !noalias !233
  call void @llvm.memcpy.p0i8.p0i8.i64(i8* noundef nonnull align 8 dereferenceable(88) %60, i8* noundef nonnull align 8 dereferenceable(88) %35, i64 88, i1 false), !noalias !233
  call void @llvm.experimental.noalias.scope.decl(metadata !292)
  call void @llvm.experimental.noalias.scope.decl(metadata !295)
  %61 = bitcast %"scale_info::build::VariantBuilder<scale_info::form::MetaForm, scale_info::build::variant_state::IndexAssigned>"* %_12.i to [0 x i8]**
  %_2.0.i.i = load [0 x i8]*, [0 x i8]** %61, align 8, !alias.scope !295, !noalias !297, !nonnull !59, !align !298, !noundef !59
  %62 = getelementptr inbounds %"scale_info::build::VariantBuilder<scale_info::form::MetaForm, scale_info::build::variant_state::IndexAssigned>", %"scale_info::build::VariantBuilder<scale_info::form::MetaForm, scale_info::build::variant_state::IndexAssigned>"* %_12.i, i64 0, i32 1, i32 1
  %_2.1.i.i = load i64, i64* %62, align 8, !alias.scope !295, !noalias !297, !noundef !59
  %63 = bitcast %"alloc::vec::Vec<scale_info::ty::fields::Field>"* %_3.i1.i to i8*
  call void @llvm.lifetime.start.p0i8(i64 24, i8* nonnull %63), !noalias !299
  %64 = getelementptr inbounds %"scale_info::build::VariantBuilder<scale_info::form::MetaForm, scale_info::build::variant_state::IndexAssigned>", %"scale_info::build::VariantBuilder<scale_info::form::MetaForm, scale_info::build::variant_state::IndexAssigned>"* %_12.i, i64 0, i32 3
  %65 = bitcast %"alloc::vec::Vec<scale_info::ty::fields::Field>"* %64 to i8*
  call void @llvm.memcpy.p0i8.p0i8.i64(i8* noundef nonnull align 8 dereferenceable(24) %63, i8* noundef nonnull align 8 dereferenceable(24) %65, i64 24, i1 false), !noalias !297
  %66 = getelementptr inbounds %"scale_info::build::VariantBuilder<scale_info::form::MetaForm, scale_info::build::variant_state::IndexAssigned>", %"scale_info::build::VariantBuilder<scale_info::form::MetaForm, scale_info::build::variant_state::IndexAssigned>"* %_12.i, i64 0, i32 5, i32 0
  %67 = load i8, i8* %66, align 8, !range !300, !alias.scope !295, !noalias !297, !noundef !59
  %switch.not.i.i = icmp eq i8 %67, 1
  br i1 %switch.not.i.i, label %bb1.i.i, label %bb9.i.i

bb9.i.i:                                          ; preds = %bb2.i25
; invoke core::option::expect_failed
  invoke void @_ZN4core6option13expect_failed17h8fad9fe05aab103eE([0 x i8]* noalias noundef nonnull readonly align 1 bitcast (<{ [39 x i8] }>* @alloc1345 to [0 x i8]*), i64 noundef 39, %"core::panic::location::Location<'_>"* noalias noundef readonly align 8 dereferenceable(24) bitcast (<{ i8*, [16 x i8] }>* @alloc1347 to %"core::panic::location::Location<'_>"*)) #25
          to label %unreachable.i.i unwind label %bb5.i2.i, !noalias !299

unreachable.i.i:                                  ; preds = %bb9.i.i
  unreachable

bb5.i2.i:                                         ; preds = %bb9.i.i
  %68 = landingpad { i8*, i32 }
          cleanup
; invoke core::ptr::drop_in_place<alloc::vec::Vec<scale_info::ty::fields::Field>>
  invoke fastcc void @"_ZN4core3ptr73drop_in_place$LT$alloc..vec..Vec$LT$scale_info..ty..fields..Field$GT$$GT$17ha7ef1429b3c6bf69E"(%"alloc::vec::Vec<scale_info::ty::fields::Field>"* noundef nonnull %_3.i1.i) #27
          to label %bb8.i.i unwind label %abort.i3.i, !noalias !299

abort.i3.i:                                       ; preds = %bb8.i.i, %bb5.i2.i
  %69 = landingpad { i8*, i32 }
          cleanup
; call core::panicking::panic_cannot_unwind
  call void @_ZN4core9panicking19panic_cannot_unwind17h4d963c01e40eff8cE() #28, !noalias !299
  unreachable

bb8.i.i:                                          ; preds = %bb5.i2.i
  %70 = getelementptr inbounds %"scale_info::build::VariantBuilder<scale_info::form::MetaForm, scale_info::build::variant_state::IndexAssigned>", %"scale_info::build::VariantBuilder<scale_info::form::MetaForm, scale_info::build::variant_state::IndexAssigned>"* %_12.i, i64 0, i32 4
; invoke core::ptr::drop_in_place<alloc::vec::Vec<&str>>
  invoke fastcc void @"_ZN4core3ptr51drop_in_place$LT$alloc..vec..Vec$LT$$RF$str$GT$$GT$17ha2aba66971651084E"(%"alloc::vec::Vec<&str>"* noundef nonnull %70) #27
          to label %cleanup.body.i unwind label %abort.i3.i, !noalias !297

bb1.i.i:                                          ; preds = %bb2.i25
  %71 = getelementptr inbounds %"scale_info::build::VariantBuilder<scale_info::form::MetaForm, scale_info::build::variant_state::IndexAssigned>", %"scale_info::build::VariantBuilder<scale_info::form::MetaForm, scale_info::build::variant_state::IndexAssigned>"* %_12.i, i64 0, i32 5, i32 1
  %72 = load i8, i8* %71, align 1, !alias.scope !295, !noalias !297
  %73 = getelementptr inbounds %"scale_info::build::VariantBuilder<scale_info::form::MetaForm, scale_info::build::variant_state::IndexAssigned>", %"scale_info::build::VariantBuilder<scale_info::form::MetaForm, scale_info::build::variant_state::IndexAssigned>"* %_12.i, i64 0, i32 4
  %74 = bitcast %"alloc::vec::Vec<&str>"* %73 to i8*
  %75 = getelementptr inbounds %"scale_info::ty::variant::Variant", %"scale_info::ty::variant::Variant"* %_11.i, i64 0, i32 2
  %76 = bitcast %"alloc::vec::Vec<&str>"* %75 to i8*
  call void @llvm.memcpy.p0i8.p0i8.i64(i8* noundef nonnull align 8 dereferenceable(24) %76, i8* noundef nonnull align 8 dereferenceable(24) %74, i64 24, i1 false), !alias.scope !301, !noalias !233
  %77 = getelementptr inbounds %"scale_info::ty::variant::Variant", %"scale_info::ty::variant::Variant"* %_11.i, i64 0, i32 1
  %78 = bitcast %"alloc::vec::Vec<scale_info::ty::fields::Field>"* %77 to i8*
  call void @llvm.memcpy.p0i8.p0i8.i64(i8* noundef nonnull align 8 dereferenceable(24) %78, i8* noundef nonnull align 8 dereferenceable(24) %65, i64 24, i1 false), !alias.scope !301, !noalias !233
  %79 = getelementptr inbounds %"scale_info::ty::variant::Variant", %"scale_info::ty::variant::Variant"* %_11.i, i64 0, i32 0, i32 0
  store [0 x i8]* %_2.0.i.i, [0 x i8]** %79, align 8, !alias.scope !302, !noalias !305
  %80 = getelementptr inbounds %"scale_info::ty::variant::Variant", %"scale_info::ty::variant::Variant"* %_11.i, i64 0, i32 0, i32 1
  store i64 %_2.1.i.i, i64* %80, align 8, !alias.scope !302, !noalias !305
  %81 = getelementptr inbounds %"scale_info::ty::variant::Variant", %"scale_info::ty::variant::Variant"* %_11.i, i64 0, i32 3
  store i8 %72, i8* %81, align 8, !alias.scope !302, !noalias !305
  call void @llvm.lifetime.end.p0i8(i64 24, i8* nonnull %63), !noalias !299
  call void @llvm.lifetime.end.p0i8(i64 88, i8* nonnull %60), !noalias !233
  call void @llvm.experimental.noalias.scope.decl(metadata !309)
  %self1.i.i = getelementptr inbounds %"scale_info::build::Variants", %"scale_info::build::Variants"* %_20, i64 0, i32 0, i32 0
; invoke alloc::raw_vec::RawVec<T,A>::reserve_for_push
  invoke fastcc void @"_ZN5alloc7raw_vec19RawVec$LT$T$C$A$GT$16reserve_for_push17h9a7fc05835fd945bE"({ i64, i64* }* noalias noundef nonnull align 8 dereferenceable(16) %self1.i.i, i64 noundef 0)
          to label %bb11 unwind label %cleanup.i.i, !noalias !312

cleanup.i.i:                                      ; preds = %bb1.i.i
  %82 = landingpad { i8*, i32 }
          cleanup
; invoke core::ptr::drop_in_place<scale_info::ty::variant::Variant>
  invoke fastcc void @"_ZN4core3ptr53drop_in_place$LT$scale_info..ty..variant..Variant$GT$17hc4b4ab9c63d22c6eE"(%"scale_info::ty::variant::Variant"* noundef nonnull %_11.i) #27
          to label %cleanup.body.i unwind label %abort.i9.i, !noalias !314

abort.i9.i:                                       ; preds = %cleanup.i.i
  %83 = landingpad { i8*, i32 }
          cleanup
; call core::panicking::panic_cannot_unwind
  call void @_ZN4core9panicking19panic_cannot_unwind17h4d963c01e40eff8cE() #28, !noalias !315
  unreachable

abort.i27:                                        ; preds = %cleanup.body.i
  %84 = landingpad { i8*, i32 }
          cleanup
; call core::panicking::panic_cannot_unwind
  call void @_ZN4core9panicking19panic_cannot_unwind17h4d963c01e40eff8cE() #28, !noalias !233
  unreachable

bb11:                                             ; preds = %bb1.i.i
  %count.pre.i.i = load i64, i64* %_1.sroa.5.0..sroa_idx4.i, align 8, !alias.scope !316, !noalias !312
  %.phi.trans.insert = bitcast i64** %_1.sroa.4.0..sroa_idx2.i to %"scale_info::ty::variant::Variant"**
  %self313.i.i.pre = load %"scale_info::ty::variant::Variant"*, %"scale_info::ty::variant::Variant"** %.phi.trans.insert, align 8, !alias.scope !316, !noalias !312
  %85 = getelementptr inbounds %"scale_info::ty::variant::Variant", %"scale_info::ty::variant::Variant"* %self313.i.i.pre, i64 %count.pre.i.i
  %86 = bitcast %"scale_info::ty::variant::Variant"* %85 to i8*
  call void @llvm.memcpy.p0i8.p0i8.i64(i8* noundef nonnull align 8 dereferenceable(72) %86, i8* noundef nonnull align 8 dereferenceable(72) %59, i64 72, i1 false), !noalias !314
  %87 = add i64 %count.pre.i.i, 1
  store i64 %87, i64* %_1.sroa.5.0..sroa_idx4.i, align 8, !alias.scope !316, !noalias !312
  call void @llvm.lifetime.end.p0i8(i64 72, i8* nonnull %59), !noalias !233
  call void @llvm.memcpy.p0i8.p0i8.i64(i8* noundef nonnull align 8 dereferenceable(24) %33, i8* noundef nonnull align 8 dereferenceable(24) %34, i64 24, i1 false), !alias.scope !233
  call void @llvm.lifetime.end.p0i8(i64 88, i8* nonnull %35)
  call void @llvm.lifetime.end.p0i8(i64 24, i8* nonnull %34)
  call void @llvm.experimental.noalias.scope.decl(metadata !317)
  call void @llvm.experimental.noalias.scope.decl(metadata !320)
  %88 = bitcast %"scale_info::build::VariantBuilder<scale_info::form::MetaForm, scale_info::build::variant_state::IndexAssigned>"* %builder1.i36 to i8*
  call void @llvm.lifetime.start.p0i8(i64 88, i8* nonnull %88)
  %89 = bitcast %"scale_info::build::VariantBuilder<scale_info::form::MetaForm, scale_info::build::variant_state::IndexAssigned>"* %_3.i.i33 to i8*
  call void @llvm.lifetime.start.p0i8(i64 88, i8* nonnull %89), !noalias !322
  %_6.sroa.7.sroa.0.0._6.sroa.7.32._4.sroa.7.32..sroa_idx54.i.sroa_cast.sroa_idx.i38 = getelementptr inbounds %"scale_info::build::VariantBuilder<scale_info::form::MetaForm, scale_info::build::variant_state::IndexAssigned>", %"scale_info::build::VariantBuilder<scale_info::form::MetaForm, scale_info::build::variant_state::IndexAssigned>"* %_3.i.i33, i64 0, i32 3, i32 0, i32 0
  store i64 0, i64* %_6.sroa.7.sroa.0.0._6.sroa.7.32._4.sroa.7.32..sroa_idx54.i.sroa_cast.sroa_idx.i38, align 8, !noalias !326
  %_6.sroa.7.sroa.4.0._6.sroa.7.32._4.sroa.7.32..sroa_idx54.i.sroa_cast.sroa_idx66.i39 = getelementptr inbounds %"scale_info::build::VariantBuilder<scale_info::form::MetaForm, scale_info::build::variant_state::IndexAssigned>", %"scale_info::build::VariantBuilder<scale_info::form::MetaForm, scale_info::build::variant_state::IndexAssigned>"* %_3.i.i33, i64 0, i32 3, i32 0, i32 1
  store i64* %_2.1.i, i64** %_6.sroa.7.sroa.4.0._6.sroa.7.32._4.sroa.7.32..sroa_idx54.i.sroa_cast.sroa_idx66.i39, align 8, !noalias !326
  %_6.sroa.7.sroa.5.0._6.sroa.7.32._4.sroa.7.32..sroa_idx54.i.sroa_cast.sroa_idx68.i40 = getelementptr inbounds %"scale_info::build::VariantBuilder<scale_info::form::MetaForm, scale_info::build::variant_state::IndexAssigned>", %"scale_info::build::VariantBuilder<scale_info::form::MetaForm, scale_info::build::variant_state::IndexAssigned>"* %_3.i.i33, i64 0, i32 3, i32 1
  %_6.sroa.8.sroa.4.0._6.sroa.8.56._4.sroa.8.56..sroa_idx55.i.sroa_cast.sroa_idx56.i41 = getelementptr inbounds %"scale_info::build::VariantBuilder<scale_info::form::MetaForm, scale_info::build::variant_state::IndexAssigned>", %"scale_info::build::VariantBuilder<scale_info::form::MetaForm, scale_info::build::variant_state::IndexAssigned>"* %_3.i.i33, i64 0, i32 4, i32 0, i32 1
  %90 = bitcast i64* %_6.sroa.7.sroa.5.0._6.sroa.7.32._4.sroa.7.32..sroa_idx54.i.sroa_cast.sroa_idx68.i40 to i8*
  call void @llvm.memset.p0i8.i64(i8* noundef nonnull align 8 dereferenceable(16) %90, i8 0, i64 16, i1 false), !noalias !327
  store i64* %_2.1.i, i64** %_6.sroa.8.sroa.4.0._6.sroa.8.56._4.sroa.8.56..sroa_idx55.i.sroa_cast.sroa_idx56.i41, align 8, !noalias !326
  %_6.sroa.8.sroa.5.0._6.sroa.8.56._4.sroa.8.56..sroa_idx55.i.sroa_cast.sroa_idx58.i42 = getelementptr inbounds %"scale_info::build::VariantBuilder<scale_info::form::MetaForm, scale_info::build::variant_state::IndexAssigned>", %"scale_info::build::VariantBuilder<scale_info::form::MetaForm, scale_info::build::variant_state::IndexAssigned>"* %_3.i.i33, i64 0, i32 4, i32 1
  store i64 0, i64* %_6.sroa.8.sroa.5.0._6.sroa.8.56._4.sroa.8.56..sroa_idx55.i.sroa_cast.sroa_idx58.i42, align 8, !noalias !326
  %91 = bitcast %"scale_info::build::VariantBuilder<scale_info::form::MetaForm, scale_info::build::variant_state::IndexAssigned>"* %_3.i.i33 to [0 x i8]**
  store [0 x i8]* bitcast (<{ [3 x i8] }>* @alloc1357 to [0 x i8]*), [0 x i8]** %91, align 8, !alias.scope !328, !noalias !331
  %92 = getelementptr inbounds %"scale_info::build::VariantBuilder<scale_info::form::MetaForm, scale_info::build::variant_state::IndexAssigned>", %"scale_info::build::VariantBuilder<scale_info::form::MetaForm, scale_info::build::variant_state::IndexAssigned>"* %_3.i.i33, i64 0, i32 1, i32 1
  store i64 3, i64* %92, align 8, !alias.scope !328, !noalias !331
  %93 = getelementptr inbounds %"scale_info::build::VariantBuilder<scale_info::form::MetaForm, scale_info::build::variant_state::IndexAssigned>", %"scale_info::build::VariantBuilder<scale_info::form::MetaForm, scale_info::build::variant_state::IndexAssigned>"* %_3.i.i33, i64 0, i32 5, i32 0
  store i8 1, i8* %93, align 8, !alias.scope !328, !noalias !331
  %94 = getelementptr inbounds %"scale_info::build::VariantBuilder<scale_info::form::MetaForm, scale_info::build::variant_state::IndexAssigned>", %"scale_info::build::VariantBuilder<scale_info::form::MetaForm, scale_info::build::variant_state::IndexAssigned>"* %_3.i.i33, i64 0, i32 5, i32 1
  store i8 1, i8* %94, align 1, !alias.scope !328, !noalias !331
  %95 = getelementptr inbounds %"scale_info::build::VariantBuilder<scale_info::form::MetaForm, scale_info::build::variant_state::IndexAssigned>", %"scale_info::build::VariantBuilder<scale_info::form::MetaForm, scale_info::build::variant_state::IndexAssigned>"* %_3.i.i33, i64 0, i32 2, i32 0
  store i64 0, i64* %95, align 8, !alias.scope !328, !noalias !331
  %96 = bitcast %"scale_info::build::FieldsBuilder<scale_info::form::MetaForm, scale_info::build::UnnamedFields>"* %_7.i.i.i32 to i8*
  call void @llvm.lifetime.start.p0i8(i64 24, i8* nonnull %96), !noalias !333
  %_6.sroa.0.0..sroa_cast.i.i43 = bitcast %"scale_info::build::FieldsBuilder<scale_info::form::MetaForm, scale_info::build::UnnamedFields>"* %_7.i.i.i32 to i64*
  store i64 0, i64* %_6.sroa.0.0..sroa_cast.i.i43, align 8, !noalias !337
  %_6.sroa.5.0..sroa_idx31.i.i44 = getelementptr inbounds %"scale_info::build::FieldsBuilder<scale_info::form::MetaForm, scale_info::build::UnnamedFields>", %"scale_info::build::FieldsBuilder<scale_info::form::MetaForm, scale_info::build::UnnamedFields>"* %_7.i.i.i32, i64 0, i32 1, i32 0, i32 1
  store i64* %_2.1.i, i64** %_6.sroa.5.0..sroa_idx31.i.i44, align 8, !noalias !337
  %_6.sroa.6.0..sroa_idx35.i.i45 = getelementptr inbounds %"scale_info::build::FieldsBuilder<scale_info::form::MetaForm, scale_info::build::UnnamedFields>", %"scale_info::build::FieldsBuilder<scale_info::form::MetaForm, scale_info::build::UnnamedFields>"* %_7.i.i.i32, i64 0, i32 1, i32 1
  store i64 0, i64* %_6.sroa.6.0..sroa_idx35.i.i45, align 8, !noalias !337
  %97 = bitcast %"scale_info::ty::fields::Field"* %_8.i.i.i31 to i8*
  call void @llvm.lifetime.start.p0i8(i64 72, i8* nonnull %97), !noalias !333
  call void @llvm.experimental.noalias.scope.decl(metadata !338)
  %_9.sroa.687.48..sroa_idx.i.i.i46 = getelementptr inbounds %"scale_info::ty::fields::Field", %"scale_info::ty::fields::Field"* %_8.i.i.i31, i64 0, i32 3, i32 0, i32 0
  store i64 0, i64* %_9.sroa.687.48..sroa_idx.i.i.i46, align 8, !alias.scope !341, !noalias !333
  %_9.sroa.8.48..sroa_idx90.i.i.i47 = getelementptr inbounds %"scale_info::ty::fields::Field", %"scale_info::ty::fields::Field"* %_8.i.i.i31, i64 0, i32 3, i32 0, i32 1
  store i64* %_2.1.i, i64** %_9.sroa.8.48..sroa_idx90.i.i.i47, align 8, !alias.scope !341, !noalias !333
  %_9.sroa.9.48..sroa_idx92.i.i.i48 = getelementptr inbounds %"scale_info::ty::fields::Field", %"scale_info::ty::fields::Field"* %_8.i.i.i31, i64 0, i32 3, i32 1
  store i64 0, i64* %_9.sroa.9.48..sroa_idx92.i.i.i48, align 8, !alias.scope !341, !noalias !333
  %98 = getelementptr inbounds %"scale_info::ty::fields::Field", %"scale_info::ty::fields::Field"* %_8.i.i.i31, i64 0, i32 0, i32 0
  store i8* null, i8** %98, align 8, !alias.scope !343, !noalias !346
  %99 = getelementptr inbounds %"scale_info::ty::fields::Field", %"scale_info::ty::fields::Field"* %_8.i.i.i31, i64 0, i32 2, i32 0
  store i64 -7044183350801047663, i64* %99, align 8, !alias.scope !343, !noalias !346
  %100 = getelementptr inbounds %"scale_info::ty::fields::Field", %"scale_info::ty::fields::Field"* %_8.i.i.i31, i64 0, i32 2, i32 1
  store i64* bitcast (void (%"scale_info::ty::Type"*)* @"_ZN14ink_primitives1_76_$LT$impl$u20$scale_info..TypeInfo$u20$for$u20$ink_primitives..LangError$GT$9type_info17hdc478b50333345e5E" to i64*), i64** %100, align 8, !alias.scope !343, !noalias !346
  %101 = getelementptr inbounds %"scale_info::ty::fields::Field", %"scale_info::ty::fields::Field"* %_8.i.i.i31, i64 0, i32 1, i32 0
  store i8* null, i8** %101, align 8, !alias.scope !343, !noalias !346
  call void @llvm.experimental.noalias.scope.decl(metadata !350)
  call void @llvm.experimental.noalias.scope.decl(metadata !353)
  %_5.i.i.i.i49 = getelementptr inbounds %"scale_info::ty::fields::Field", %"scale_info::ty::fields::Field"* %_8.i.i.i31, i64 0, i32 2
; invoke scale_info::meta_type::MetaType::is_phantom
  %_4.i.i.i.i50 = invoke noundef zeroext i1 @_ZN10scale_info9meta_type8MetaType10is_phantom17hc147d9272919729eE({ i64, i64* }* noalias noundef nonnull readonly align 8 dereferenceable(16) %_5.i.i.i.i49)
          to label %bb1.i.i.i.i54 unwind label %bb9.i11.i.i.i62, !noalias !355

cleanup.body.i53:                                 ; preds = %cleanup.i.i93, %bb8.i.i85, %bb6.i.i72
  %eh.lpad-body.i52 = phi { i8*, i32 } [ %.pn.ph.i.i.i.i71, %bb6.i.i72 ], [ %121, %bb8.i.i85 ], [ %138, %cleanup.i.i93 ]
; invoke core::ptr::drop_in_place<scale_info::build::Variants>
  invoke fastcc void @"_ZN4core3ptr48drop_in_place$LT$scale_info..build..Variants$GT$17h969a766fc647e422E"(%"scale_info::build::Variants"* noundef nonnull %_19) #27
          to label %bb15 unwind label %abort.i99, !noalias !317

bb1.i.i.i.i54:                                    ; preds = %bb11
  br i1 %_4.i.i.i.i50, label %bb8.i.i.i.i65, label %bb1.i16.i.i.i56

bb1.i16.i.i.i56:                                  ; preds = %bb1.i.i.i.i54
  %102 = bitcast %"scale_info::ty::fields::Field"* %_8.i.i.i.i30 to i8*
  call void @llvm.lifetime.start.p0i8(i64 72, i8* nonnull %102), !noalias !356
  call void @llvm.memcpy.p0i8.p0i8.i64(i8* noundef nonnull align 8 dereferenceable(72) %102, i8* noundef nonnull align 8 dereferenceable(72) %97, i64 72, i1 false), !noalias !355
  call void @llvm.experimental.noalias.scope.decl(metadata !358)
  %self1.i.i.i.i55 = bitcast %"scale_info::build::FieldsBuilder<scale_info::form::MetaForm, scale_info::build::UnnamedFields>"* %_7.i.i.i32 to { i64, i64* }*
; invoke alloc::raw_vec::RawVec<T,A>::reserve_for_push
  invoke fastcc void @"_ZN5alloc7raw_vec19RawVec$LT$T$C$A$GT$16reserve_for_push17h9a7fc05835fd945bE"({ i64, i64* }* noalias noundef nonnull align 8 dereferenceable(16) %self1.i.i.i.i55, i64 noundef 0)
          to label %bb3.i10.i.i.i61 unwind label %cleanup.i17.i.i.i57, !noalias !361

cleanup.i17.i.i.i57:                              ; preds = %bb1.i16.i.i.i56
  %103 = landingpad { i8*, i32 }
          cleanup
  br label %bb6.i.i72

bb3.i10.i.i.i61:                                  ; preds = %bb1.i16.i.i.i56
  %count.pre.i.i.i.i58 = load i64, i64* %_6.sroa.6.0..sroa_idx35.i.i45, align 8, !alias.scope !358, !noalias !361
  %104 = bitcast i64** %_6.sroa.5.0..sroa_idx31.i.i44 to %"scale_info::ty::fields::Field"**
  %self313.i.i.i.i59 = load %"scale_info::ty::fields::Field"*, %"scale_info::ty::fields::Field"** %104, align 8, !alias.scope !358, !noalias !361, !nonnull !59
  %105 = getelementptr inbounds %"scale_info::ty::fields::Field", %"scale_info::ty::fields::Field"* %self313.i.i.i.i59, i64 %count.pre.i.i.i.i58
  %106 = bitcast %"scale_info::ty::fields::Field"* %105 to i8*
  call void @llvm.memcpy.p0i8.p0i8.i64(i8* noundef nonnull align 8 dereferenceable(72) %106, i8* noundef nonnull align 8 dereferenceable(72) %102, i64 72, i1 false), !noalias !363
  %107 = add i64 %count.pre.i.i.i.i58, 1
  store i64 %107, i64* %_6.sroa.6.0..sroa_idx35.i.i45, align 8, !alias.scope !358, !noalias !361
  call void @llvm.lifetime.end.p0i8(i64 72, i8* nonnull %102), !noalias !356
  %_5.sroa.0.sroa.0.0.copyload.i.i60 = load i64, i64* %_6.sroa.0.0..sroa_cast.i.i43, align 8, !alias.scope !364, !noalias !365
  %108 = bitcast %"scale_info::ty::fields::Field"* %self313.i.i.i.i59 to i64*
  br label %bb2.i80

bb9.i11.i.i.i62:                                  ; preds = %bb11
  %109 = landingpad { i8*, i32 }
          cleanup
  br label %bb6.i.i72

bb8.i.i.i.i65:                                    ; preds = %bb1.i.i.i.i54
  call void @llvm.experimental.noalias.scope.decl(metadata !366) #26, !noalias !364
  %_4.i.i.i.i.i.i.i.i63 = load i64, i64* %_9.sroa.687.48..sroa_idx.i.i.i46, align 8, !alias.scope !369, !noalias !372, !noundef !59
  %_3.i.i.i.i.i.i.i.i64 = icmp eq i64 %_4.i.i.i.i.i.i.i.i63, 0
  br i1 %_3.i.i.i.i.i.i.i.i64, label %bb2.i80, label %bb2.i.i.i.i.i.i.i69

bb2.i.i.i.i.i.i.i69:                              ; preds = %bb8.i.i.i.i65
  %_6.i.i.i.i.i.i.i.i.i66 = icmp ult i64 %_4.i.i.i.i.i.i.i.i63, 576460752303423488
  %array_size.i.i.i.i.i.i.i.i.i67 = shl nuw nsw i64 %_4.i.i.i.i.i.i.i.i63, 4
  call void @llvm.assume(i1 %_6.i.i.i.i.i.i.i.i.i66) #26, !noalias !364
  %110 = bitcast i64** %_9.sroa.8.48..sroa_idx90.i.i.i47 to i8**
  %self11011.i.i.i.i.i.i.i.i68 = load i8*, i8** %110, align 8, !alias.scope !369, !noalias !372, !nonnull !59
  call void @__rust_dealloc(i8* noundef nonnull %self11011.i.i.i.i.i.i.i.i68, i64 noundef %array_size.i.i.i.i.i.i.i.i.i67, i64 noundef 8) #26, !noalias !374
  br label %bb2.i80

bb6.i.i72:                                        ; preds = %bb9.i11.i.i.i62, %cleanup.i17.i.i.i57
  %_8.i.sink.i.i.i70 = phi %"scale_info::ty::fields::Field"* [ %_8.i.i.i.i30, %cleanup.i17.i.i.i57 ], [ %_8.i.i.i31, %bb9.i11.i.i.i62 ]
  %.pn.ph.i.i.i.i71 = phi { i8*, i32 } [ %103, %cleanup.i17.i.i.i57 ], [ %109, %bb9.i11.i.i.i62 ]
; call core::ptr::drop_in_place<scale_info::ty::fields::Field>
  call fastcc void @"_ZN4core3ptr50drop_in_place$LT$scale_info..ty..fields..Field$GT$17h12cb7017fa87fa5cE"(%"scale_info::ty::fields::Field"* noundef nonnull %_8.i.sink.i.i.i70) #27, !noalias !375
  call fastcc void bitcast (void (%"scale_info::build::FieldsBuilder<scale_info::form::MetaForm, scale_info::build::NamedFields>"*)* @"_ZN4core3ptr120drop_in_place$LT$scale_info..build..FieldsBuilder$LT$scale_info..form..MetaForm$C$scale_info..build..NamedFields$GT$$GT$17hc1dcf047f74888d8E" to void (%"scale_info::build::FieldsBuilder<scale_info::form::MetaForm, scale_info::build::UnnamedFields>"*)*)(%"scale_info::build::FieldsBuilder<scale_info::form::MetaForm, scale_info::build::UnnamedFields>"* noundef nonnull %_7.i.i.i32) #27, !noalias !375
; invoke core::ptr::drop_in_place<scale_info::build::VariantBuilder<scale_info::form::MetaForm,scale_info::build::variant_state::IndexAssigned>>
  invoke fastcc void @"_ZN4core3ptr138drop_in_place$LT$scale_info..build..VariantBuilder$LT$scale_info..form..MetaForm$C$scale_info..build..variant_state..IndexAssigned$GT$$GT$17hec2fbcef90c23f4aE"(%"scale_info::build::VariantBuilder<scale_info::form::MetaForm, scale_info::build::variant_state::IndexAssigned>"* noundef nonnull %_3.i.i33) #27
          to label %cleanup.body.i53 unwind label %abort.i.i73, !noalias !322

abort.i.i73:                                      ; preds = %bb6.i.i72
  %111 = landingpad { i8*, i32 }
          cleanup
; call core::panicking::panic_cannot_unwind
  call void @_ZN4core9panicking19panic_cannot_unwind17h4d963c01e40eff8cE() #28, !noalias !322
  unreachable

bb2.i80:                                          ; preds = %bb2.i.i.i.i.i.i.i69, %bb8.i.i.i.i65, %bb3.i10.i.i.i61
  %_5.sroa.0.sroa.0.0.i.i74 = phi i64 [ 0, %bb8.i.i.i.i65 ], [ 0, %bb2.i.i.i.i.i.i.i69 ], [ %_5.sroa.0.sroa.0.0.copyload.i.i60, %bb3.i10.i.i.i61 ]
  %_5.sroa.0.sroa.5.0.i.i75 = phi i64* [ %_2.1.i, %bb8.i.i.i.i65 ], [ %_2.1.i, %bb2.i.i.i.i.i.i.i69 ], [ %108, %bb3.i10.i.i.i61 ]
  %_5.sroa.0.sroa.6.0.i.i76 = phi i64 [ 0, %bb8.i.i.i.i65 ], [ 0, %bb2.i.i.i.i.i.i.i69 ], [ %107, %bb3.i10.i.i.i61 ]
  call void @llvm.lifetime.end.p0i8(i64 72, i8* nonnull %97), !noalias !333
  call void @llvm.lifetime.end.p0i8(i64 24, i8* nonnull %96), !noalias !333
  call void @llvm.experimental.noalias.scope.decl(metadata !376)
  call void @llvm.experimental.noalias.scope.decl(metadata !379)
  store i64 %_5.sroa.0.sroa.0.0.i.i74, i64* %_6.sroa.7.sroa.0.0._6.sroa.7.32._4.sroa.7.32..sroa_idx54.i.sroa_cast.sroa_idx.i38, align 8, !alias.scope !381, !noalias !383
  store i64* %_5.sroa.0.sroa.5.0.i.i75, i64** %_6.sroa.7.sroa.4.0._6.sroa.7.32._4.sroa.7.32..sroa_idx54.i.sroa_cast.sroa_idx66.i39, align 8, !alias.scope !381, !noalias !383
  store i64 %_5.sroa.0.sroa.6.0.i.i76, i64* %_6.sroa.7.sroa.5.0._6.sroa.7.32._4.sroa.7.32..sroa_idx54.i.sroa_cast.sroa_idx68.i40, align 8, !alias.scope !381, !noalias !383
  call void @llvm.memcpy.p0i8.p0i8.i64(i8* noundef nonnull align 8 dereferenceable(88) %88, i8* noundef nonnull align 8 dereferenceable(88) %89, i64 88, i1 false), !alias.scope !384, !noalias !385
  call void @llvm.lifetime.end.p0i8(i64 88, i8* nonnull %89), !noalias !322
  %112 = bitcast %"scale_info::ty::variant::Variant"* %_11.i35 to i8*
  call void @llvm.lifetime.start.p0i8(i64 72, i8* nonnull %112), !noalias !327
  %113 = bitcast %"scale_info::build::VariantBuilder<scale_info::form::MetaForm, scale_info::build::variant_state::IndexAssigned>"* %_12.i34 to i8*
  call void @llvm.lifetime.start.p0i8(i64 88, i8* nonnull %113), !noalias !327
  call void @llvm.memcpy.p0i8.p0i8.i64(i8* noundef nonnull align 8 dereferenceable(88) %113, i8* noundef nonnull align 8 dereferenceable(88) %88, i64 88, i1 false), !noalias !327
  call void @llvm.experimental.noalias.scope.decl(metadata !386)
  call void @llvm.experimental.noalias.scope.decl(metadata !389)
  %114 = bitcast %"scale_info::build::VariantBuilder<scale_info::form::MetaForm, scale_info::build::variant_state::IndexAssigned>"* %_12.i34 to [0 x i8]**
  %_2.0.i.i77 = load [0 x i8]*, [0 x i8]** %114, align 8, !alias.scope !389, !noalias !391, !nonnull !59, !align !298, !noundef !59
  %115 = getelementptr inbounds %"scale_info::build::VariantBuilder<scale_info::form::MetaForm, scale_info::build::variant_state::IndexAssigned>", %"scale_info::build::VariantBuilder<scale_info::form::MetaForm, scale_info::build::variant_state::IndexAssigned>"* %_12.i34, i64 0, i32 1, i32 1
  %_2.1.i.i78 = load i64, i64* %115, align 8, !alias.scope !389, !noalias !391, !noundef !59
  %116 = bitcast %"alloc::vec::Vec<scale_info::ty::fields::Field>"* %_3.i1.i29 to i8*
  call void @llvm.lifetime.start.p0i8(i64 24, i8* nonnull %116), !noalias !392
  %117 = getelementptr inbounds %"scale_info::build::VariantBuilder<scale_info::form::MetaForm, scale_info::build::variant_state::IndexAssigned>", %"scale_info::build::VariantBuilder<scale_info::form::MetaForm, scale_info::build::variant_state::IndexAssigned>"* %_12.i34, i64 0, i32 3
  %118 = bitcast %"alloc::vec::Vec<scale_info::ty::fields::Field>"* %117 to i8*
  call void @llvm.memcpy.p0i8.p0i8.i64(i8* noundef nonnull align 8 dereferenceable(24) %116, i8* noundef nonnull align 8 dereferenceable(24) %118, i64 24, i1 false), !noalias !391
  %119 = getelementptr inbounds %"scale_info::build::VariantBuilder<scale_info::form::MetaForm, scale_info::build::variant_state::IndexAssigned>", %"scale_info::build::VariantBuilder<scale_info::form::MetaForm, scale_info::build::variant_state::IndexAssigned>"* %_12.i34, i64 0, i32 5, i32 0
  %120 = load i8, i8* %119, align 8, !range !300, !alias.scope !389, !noalias !391, !noundef !59
  %switch.not.i.i79 = icmp eq i8 %120, 1
  br i1 %switch.not.i.i79, label %bb3.i88, label %bb9.i.i81

bb9.i.i81:                                        ; preds = %bb2.i80
; invoke core::option::expect_failed
  invoke void @_ZN4core6option13expect_failed17h8fad9fe05aab103eE([0 x i8]* noalias noundef nonnull readonly align 1 bitcast (<{ [39 x i8] }>* @alloc1345 to [0 x i8]*), i64 noundef 39, %"core::panic::location::Location<'_>"* noalias noundef readonly align 8 dereferenceable(24) bitcast (<{ i8*, [16 x i8] }>* @alloc1347 to %"core::panic::location::Location<'_>"*)) #25
          to label %unreachable.i.i82 unwind label %bb5.i2.i83, !noalias !392

unreachable.i.i82:                                ; preds = %bb9.i.i81
  unreachable

bb5.i2.i83:                                       ; preds = %bb9.i.i81
  %121 = landingpad { i8*, i32 }
          cleanup
; invoke core::ptr::drop_in_place<alloc::vec::Vec<scale_info::ty::fields::Field>>
  invoke fastcc void @"_ZN4core3ptr73drop_in_place$LT$alloc..vec..Vec$LT$scale_info..ty..fields..Field$GT$$GT$17ha7ef1429b3c6bf69E"(%"alloc::vec::Vec<scale_info::ty::fields::Field>"* noundef nonnull %_3.i1.i29) #27
          to label %bb8.i.i85 unwind label %abort.i3.i84, !noalias !392

abort.i3.i84:                                     ; preds = %bb8.i.i85, %bb5.i2.i83
  %122 = landingpad { i8*, i32 }
          cleanup
; call core::panicking::panic_cannot_unwind
  call void @_ZN4core9panicking19panic_cannot_unwind17h4d963c01e40eff8cE() #28, !noalias !392
  unreachable

bb8.i.i85:                                        ; preds = %bb5.i2.i83
  %123 = getelementptr inbounds %"scale_info::build::VariantBuilder<scale_info::form::MetaForm, scale_info::build::variant_state::IndexAssigned>", %"scale_info::build::VariantBuilder<scale_info::form::MetaForm, scale_info::build::variant_state::IndexAssigned>"* %_12.i34, i64 0, i32 4
; invoke core::ptr::drop_in_place<alloc::vec::Vec<&str>>
  invoke fastcc void @"_ZN4core3ptr51drop_in_place$LT$alloc..vec..Vec$LT$$RF$str$GT$$GT$17ha2aba66971651084E"(%"alloc::vec::Vec<&str>"* noundef nonnull %123) #27
          to label %cleanup.body.i53 unwind label %abort.i3.i84, !noalias !391

bb3.i88:                                          ; preds = %bb2.i80
  %124 = getelementptr inbounds %"scale_info::build::VariantBuilder<scale_info::form::MetaForm, scale_info::build::variant_state::IndexAssigned>", %"scale_info::build::VariantBuilder<scale_info::form::MetaForm, scale_info::build::variant_state::IndexAssigned>"* %_12.i34, i64 0, i32 5, i32 1
  %125 = load i8, i8* %124, align 1, !alias.scope !389, !noalias !391
  %126 = getelementptr inbounds %"scale_info::build::VariantBuilder<scale_info::form::MetaForm, scale_info::build::variant_state::IndexAssigned>", %"scale_info::build::VariantBuilder<scale_info::form::MetaForm, scale_info::build::variant_state::IndexAssigned>"* %_12.i34, i64 0, i32 4
  %127 = bitcast %"alloc::vec::Vec<&str>"* %126 to i8*
  %128 = getelementptr inbounds %"scale_info::ty::variant::Variant", %"scale_info::ty::variant::Variant"* %_11.i35, i64 0, i32 2
  %129 = bitcast %"alloc::vec::Vec<&str>"* %128 to i8*
  call void @llvm.memcpy.p0i8.p0i8.i64(i8* noundef nonnull align 8 dereferenceable(24) %129, i8* noundef nonnull align 8 dereferenceable(24) %127, i64 24, i1 false), !alias.scope !393, !noalias !327
  %130 = getelementptr inbounds %"scale_info::ty::variant::Variant", %"scale_info::ty::variant::Variant"* %_11.i35, i64 0, i32 1
  %131 = bitcast %"alloc::vec::Vec<scale_info::ty::fields::Field>"* %130 to i8*
  call void @llvm.memcpy.p0i8.p0i8.i64(i8* noundef nonnull align 8 dereferenceable(24) %131, i8* noundef nonnull align 8 dereferenceable(24) %118, i64 24, i1 false), !alias.scope !393, !noalias !327
  %132 = getelementptr inbounds %"scale_info::ty::variant::Variant", %"scale_info::ty::variant::Variant"* %_11.i35, i64 0, i32 0, i32 0
  store [0 x i8]* %_2.0.i.i77, [0 x i8]** %132, align 8, !alias.scope !394, !noalias !397
  %133 = getelementptr inbounds %"scale_info::ty::variant::Variant", %"scale_info::ty::variant::Variant"* %_11.i35, i64 0, i32 0, i32 1
  store i64 %_2.1.i.i78, i64* %133, align 8, !alias.scope !394, !noalias !397
  %134 = getelementptr inbounds %"scale_info::ty::variant::Variant", %"scale_info::ty::variant::Variant"* %_11.i35, i64 0, i32 3
  store i8 %125, i8* %134, align 8, !alias.scope !394, !noalias !397
  call void @llvm.lifetime.end.p0i8(i64 24, i8* nonnull %116), !noalias !392
  call void @llvm.lifetime.end.p0i8(i64 88, i8* nonnull %113), !noalias !327
  call void @llvm.experimental.noalias.scope.decl(metadata !401)
  %135 = getelementptr inbounds %"scale_info::build::Variants", %"scale_info::build::Variants"* %_19, i64 0, i32 0, i32 1
  %_4.i.i86 = load i64, i64* %135, align 8, !alias.scope !404, !noalias !405, !noundef !59
  %136 = getelementptr inbounds %"scale_info::build::Variants", %"scale_info::build::Variants"* %_19, i64 0, i32 0, i32 0, i32 0
  %137 = load i64, i64* %136, align 8, !alias.scope !404, !noalias !405, !noundef !59
  %_3.i6.i87 = icmp eq i64 %_4.i.i86, %137
  br i1 %_3.i6.i87, label %bb1.i.i90, label %bb12

bb1.i.i90:                                        ; preds = %bb3.i88
  %self1.i.i89 = getelementptr inbounds %"scale_info::build::Variants", %"scale_info::build::Variants"* %_19, i64 0, i32 0, i32 0
; invoke alloc::raw_vec::RawVec<T,A>::reserve_for_push
  invoke fastcc void @"_ZN5alloc7raw_vec19RawVec$LT$T$C$A$GT$16reserve_for_push17h9a7fc05835fd945bE"({ i64, i64* }* noalias noundef nonnull align 8 dereferenceable(16) %self1.i.i89, i64 noundef %_4.i.i86)
          to label %bb1.bb3_crit_edge.i.i92 unwind label %cleanup.i.i93, !noalias !405

bb1.bb3_crit_edge.i.i92:                          ; preds = %bb1.i.i90
  %count.pre.i.i91 = load i64, i64* %135, align 8, !alias.scope !404, !noalias !405
  br label %bb12

cleanup.i.i93:                                    ; preds = %bb1.i.i90
  %138 = landingpad { i8*, i32 }
          cleanup
; invoke core::ptr::drop_in_place<scale_info::ty::variant::Variant>
  invoke fastcc void @"_ZN4core3ptr53drop_in_place$LT$scale_info..ty..variant..Variant$GT$17hc4b4ab9c63d22c6eE"(%"scale_info::ty::variant::Variant"* noundef nonnull %_11.i35) #27
          to label %cleanup.body.i53 unwind label %abort.i9.i94, !noalias !407

abort.i9.i94:                                     ; preds = %cleanup.i.i93
  %139 = landingpad { i8*, i32 }
          cleanup
; call core::panicking::panic_cannot_unwind
  call void @_ZN4core9panicking19panic_cannot_unwind17h4d963c01e40eff8cE() #28, !noalias !408
  unreachable

abort.i99:                                        ; preds = %cleanup.body.i53
  %140 = landingpad { i8*, i32 }
          cleanup
; call core::panicking::panic_cannot_unwind
  call void @_ZN4core9panicking19panic_cannot_unwind17h4d963c01e40eff8cE() #28, !noalias !327
  unreachable

bb12:                                             ; preds = %bb1.bb3_crit_edge.i.i92, %bb3.i88
  %count.i.i95 = phi i64 [ %count.pre.i.i91, %bb1.bb3_crit_edge.i.i92 ], [ %_4.i.i86, %bb3.i88 ]
  %141 = getelementptr inbounds %"scale_info::build::Variants", %"scale_info::build::Variants"* %_19, i64 0, i32 0, i32 0, i32 1
  %142 = bitcast i64** %141 to %"scale_info::ty::variant::Variant"**
  %self313.i.i96 = load %"scale_info::ty::variant::Variant"*, %"scale_info::ty::variant::Variant"** %142, align 8, !alias.scope !404, !noalias !405, !nonnull !59
  %143 = getelementptr inbounds %"scale_info::ty::variant::Variant", %"scale_info::ty::variant::Variant"* %self313.i.i96, i64 %count.i.i95
  %144 = bitcast %"scale_info::ty::variant::Variant"* %143 to i8*
  call void @llvm.memcpy.p0i8.p0i8.i64(i8* noundef nonnull align 8 dereferenceable(72) %144, i8* noundef nonnull align 8 dereferenceable(72) %112, i64 72, i1 false), !noalias !407
  %145 = add i64 %count.i.i95, 1
  store i64 %145, i64* %135, align 8, !alias.scope !404, !noalias !405
  call void @llvm.lifetime.end.p0i8(i64 72, i8* nonnull %112), !noalias !327
  call void @llvm.memcpy.p0i8.p0i8.i64(i8* noundef nonnull align 8 dereferenceable(24) %32, i8* noundef nonnull align 8 dereferenceable(24) %33, i64 24, i1 false), !alias.scope !327
  call void @llvm.lifetime.end.p0i8(i64 88, i8* nonnull %88)
  call void @llvm.lifetime.end.p0i8(i64 24, i8* nonnull %33)
; call scale_info::build::TypeBuilder<F,scale_info::build::state::PathAssigned>::variant
  call fastcc void @"_ZN10scale_info5build61TypeBuilder$LT$F$C$scale_info..build..state..PathAssigned$GT$7variant17hb2696741f049afb7E"(%"scale_info::ty::Type"* noalias nocapture noundef nonnull dereferenceable(112) %0, %"scale_info::build::TypeBuilder<scale_info::form::MetaForm, scale_info::build::state::PathAssigned>"* noalias nocapture noundef nonnull dereferenceable(72) %_1, %"scale_info::build::Variants"* noalias nocapture noundef nonnull readonly dereferenceable(24) %_18)
  call void @llvm.lifetime.end.p0i8(i64 24, i8* nonnull %32)
  call void @llvm.lifetime.end.p0i8(i64 72, i8* nonnull %1)
  ret void

bb15:                                             ; preds = %cleanup.body.i, %cleanup.body.i53
  %eh.lpad-body28.ph = phi { i8*, i32 } [ %eh.lpad-body.i, %cleanup.body.i ], [ %eh.lpad-body.i52, %cleanup.body.i53 ]
; invoke core::ptr::drop_in_place<scale_info::build::TypeBuilder<scale_info::form::MetaForm,scale_info::build::state::PathAssigned>>
  invoke fastcc void @"_ZN4core3ptr126drop_in_place$LT$scale_info..build..TypeBuilder$LT$scale_info..form..MetaForm$C$scale_info..build..state..PathAssigned$GT$$GT$17hdeb593293d6bc2e2E"(%"scale_info::build::TypeBuilder<scale_info::form::MetaForm, scale_info::build::state::PathAssigned>"* noundef nonnull %_1) #27
          to label %bb14 unwind label %abort
}

; scale_info::impls::<impl scale_info::TypeInfo for core::result::Result<T,E>>::type_info
; Function Attrs: nonlazybind uwtable
define internal void @"_ZN10scale_info5impls84_$LT$impl$u20$scale_info..TypeInfo$u20$for$u20$core..result..Result$LT$T$C$E$GT$$GT$9type_info17h95aee91952c06c30E"(%"scale_info::ty::Type"* noalias nocapture noundef sret(%"scale_info::ty::Type") dereferenceable(112) %0) unnamed_addr #0 personality i32 (i32, i32, i64, %"unwind::libunwind::_Unwind_Exception"*, %"unwind::libunwind::_Unwind_Context"*)* @rust_eh_personality {
start:
  %_3.i1.i29 = alloca %"alloc::vec::Vec<scale_info::ty::fields::Field>", align 8
  %_8.i.i.i.i30 = alloca %"scale_info::ty::fields::Field", align 8
  %_8.i.i.i31 = alloca %"scale_info::ty::fields::Field", align 8
  %_7.i.i.i32 = alloca %"scale_info::build::FieldsBuilder<scale_info::form::MetaForm, scale_info::build::UnnamedFields>", align 8
  %_3.i.i33 = alloca %"scale_info::build::VariantBuilder<scale_info::form::MetaForm, scale_info::build::variant_state::IndexAssigned>", align 8
  %_12.i34 = alloca %"scale_info::build::VariantBuilder<scale_info::form::MetaForm, scale_info::build::variant_state::IndexAssigned>", align 8
  %_11.i35 = alloca %"scale_info::ty::variant::Variant", align 8
  %builder1.i36 = alloca %"scale_info::build::VariantBuilder<scale_info::form::MetaForm, scale_info::build::variant_state::IndexAssigned>", align 8
  %_3.i1.i = alloca %"alloc::vec::Vec<scale_info::ty::fields::Field>", align 8
  %_8.i.i.i.i = alloca %"scale_info::ty::fields::Field", align 8
  %_8.i.i.i = alloca %"scale_info::ty::fields::Field", align 8
  %_7.i.i.i = alloca %"scale_info::build::FieldsBuilder<scale_info::form::MetaForm, scale_info::build::UnnamedFields>", align 8
  %_3.i.i = alloca %"scale_info::build::VariantBuilder<scale_info::form::MetaForm, scale_info::build::variant_state::IndexAssigned>", align 8
  %_12.i = alloca %"scale_info::build::VariantBuilder<scale_info::form::MetaForm, scale_info::build::variant_state::IndexAssigned>", align 8
  %_11.i = alloca %"scale_info::ty::variant::Variant", align 8
  %builder1.i = alloca %"scale_info::build::VariantBuilder<scale_info::form::MetaForm, scale_info::build::variant_state::IndexAssigned>", align 8
  %_20 = alloca %"scale_info::build::Variants", align 8
  %_19 = alloca %"scale_info::build::Variants", align 8
  %_18 = alloca %"scale_info::build::Variants", align 8
  %_15 = alloca %"scale_info::ty::TypeParameter", align 8
  %_12 = alloca %"scale_info::ty::TypeParameter", align 8
  %_4 = alloca %"scale_info::ty::path::Path", align 8
  %_3 = alloca %"scale_info::build::TypeBuilder", align 8
  %_2 = alloca %"scale_info::build::TypeBuilder<scale_info::form::MetaForm, scale_info::build::state::PathAssigned>", align 8
  %_1 = alloca %"scale_info::build::TypeBuilder<scale_info::form::MetaForm, scale_info::build::state::PathAssigned>", align 8
  %1 = bitcast %"scale_info::build::TypeBuilder<scale_info::form::MetaForm, scale_info::build::state::PathAssigned>"* %_1 to i8*
  call void @llvm.lifetime.start.p0i8(i64 72, i8* nonnull %1)
  %2 = bitcast %"scale_info::build::TypeBuilder<scale_info::form::MetaForm, scale_info::build::state::PathAssigned>"* %_2 to i8*
  call void @llvm.lifetime.start.p0i8(i64 72, i8* nonnull %2)
  %3 = bitcast %"scale_info::build::TypeBuilder"* %_3 to i8*
  call void @llvm.lifetime.start.p0i8(i64 72, i8* nonnull %3)
; call scale_info::ty::Type::builder
  call void @_ZN10scale_info2ty4Type7builder17h3359f1615f98039cE(%"scale_info::build::TypeBuilder"* noalias nocapture noundef nonnull sret(%"scale_info::build::TypeBuilder") dereferenceable(72) %_3)
  %4 = bitcast %"scale_info::ty::path::Path"* %_4 to i8*
  call void @llvm.lifetime.start.p0i8(i64 24, i8* nonnull %4)
; invoke scale_info::ty::path::Path::prelude
  invoke void @_ZN10scale_info2ty4path4Path7prelude17hd62fcf5c5d51fce0E(%"scale_info::ty::path::Path"* noalias nocapture noundef nonnull sret(%"scale_info::ty::path::Path") dereferenceable(24) %_4, [0 x i8]* noalias noundef nonnull readonly align 1 bitcast (<{ [6 x i8] }>* @alloc1353 to [0 x i8]*), i64 noundef 6)
          to label %bb2 unwind label %bb20

bb2:                                              ; preds = %start
  tail call void @llvm.experimental.noalias.scope.decl(metadata !409)
  tail call void @llvm.experimental.noalias.scope.decl(metadata !412)
  tail call void @llvm.experimental.noalias.scope.decl(metadata !414)
  call void @llvm.memcpy.p0i8.p0i8.i64(i8* noundef nonnull align 8 dereferenceable(24) %2, i8* noundef nonnull align 8 dereferenceable(24) %4, i64 24, i1 false), !alias.scope !416, !noalias !412
  %5 = getelementptr inbounds %"scale_info::build::TypeBuilder", %"scale_info::build::TypeBuilder"* %_3, i64 0, i32 2
  %6 = bitcast %"alloc::vec::Vec<scale_info::ty::TypeParameter>"* %5 to i8*
  %7 = getelementptr inbounds %"scale_info::build::TypeBuilder<scale_info::form::MetaForm, scale_info::build::state::PathAssigned>", %"scale_info::build::TypeBuilder<scale_info::form::MetaForm, scale_info::build::state::PathAssigned>"* %_2, i64 0, i32 2
  %8 = bitcast %"alloc::vec::Vec<scale_info::ty::TypeParameter>"* %7 to i8*
  call void @llvm.memcpy.p0i8.p0i8.i64(i8* noundef nonnull align 8 dereferenceable(24) %8, i8* noundef nonnull align 8 dereferenceable(24) %6, i64 24, i1 false), !alias.scope !417, !noalias !414
  %9 = getelementptr inbounds %"scale_info::build::TypeBuilder", %"scale_info::build::TypeBuilder"* %_3, i64 0, i32 3
  %10 = bitcast %"alloc::vec::Vec<&str>"* %9 to i8*
  %11 = getelementptr inbounds %"scale_info::build::TypeBuilder<scale_info::form::MetaForm, scale_info::build::state::PathAssigned>", %"scale_info::build::TypeBuilder<scale_info::form::MetaForm, scale_info::build::state::PathAssigned>"* %_2, i64 0, i32 3
  %12 = bitcast %"alloc::vec::Vec<&str>"* %11 to i8*
  call void @llvm.memcpy.p0i8.p0i8.i64(i8* noundef nonnull align 8 dereferenceable(24) %12, i8* noundef nonnull align 8 dereferenceable(24) %10, i64 24, i1 false), !alias.scope !417, !noalias !414
  %13 = getelementptr inbounds %"scale_info::build::TypeBuilder", %"scale_info::build::TypeBuilder"* %_3, i64 0, i32 1, i32 1
  %14 = load {}*, {}** %13, align 8, !alias.scope !412, !noalias !416, !noundef !59
  %15 = icmp eq {}* %14, null
  %16 = bitcast {}* %14 to i8*
  br i1 %15, label %bb3, label %bb2.i.i

bb2.i.i:                                          ; preds = %bb2
  tail call void @llvm.experimental.noalias.scope.decl(metadata !418) #26
  %17 = bitcast %"scale_info::build::TypeBuilder"* %_3 to i64*
  %_4.i.i.i.i.i.i.i = load i64, i64* %17, align 8, !alias.scope !421, !noalias !424, !noundef !59
  %_3.i.i.i.i.i.i.i = icmp eq i64 %_4.i.i.i.i.i.i.i, 0
  br i1 %_3.i.i.i.i.i.i.i, label %bb3, label %bb2.i.i.i.i.i.i

bb2.i.i.i.i.i.i:                                  ; preds = %bb2.i.i
  %_6.i.i.i.i.i.i.i.i = icmp ult i64 %_4.i.i.i.i.i.i.i, 576460752303423488
  %array_size.i.i.i.i.i.i.i.i = shl nuw nsw i64 %_4.i.i.i.i.i.i.i, 4
  tail call void @llvm.assume(i1 %_6.i.i.i.i.i.i.i.i) #26
  tail call void @__rust_dealloc(i8* noundef nonnull %16, i64 noundef %array_size.i.i.i.i.i.i.i.i, i64 noundef 8) #26, !noalias !426
  br label %bb3

bb3:                                              ; preds = %bb2.i.i.i.i.i.i, %bb2.i.i, %bb2
  call void @llvm.lifetime.end.p0i8(i64 24, i8* nonnull %4)
  call void @llvm.lifetime.end.p0i8(i64 72, i8* nonnull %3)
  %18 = tail call noundef i8* @__rust_alloc(i64 noundef 64, i64 noundef 8) #26
  %19 = icmp eq i8* %18, null
  br i1 %19, label %bb1.i, label %bb5

bb1.i:                                            ; preds = %bb3
; invoke alloc::alloc::handle_alloc_error
  invoke void @_ZN5alloc5alloc18handle_alloc_error17h54308f7b8b227d87E(i64 noundef 64, i64 noundef 8) #25
          to label %.noexc unwind label %bb19.thread128

.noexc:                                           ; preds = %bb1.i
  unreachable

bb14:                                             ; preds = %bb15, %bb18, %bb20
  %.pn20 = phi { i8*, i32 } [ %eh.lpad-body28.ph, %bb15 ], [ %.pn127, %bb18 ], [ %20, %bb20 ]
  resume { i8*, i32 } %.pn20

bb20:                                             ; preds = %start
  %20 = landingpad { i8*, i32 }
          cleanup
  invoke fastcc void bitcast (void (%"scale_info::build::TypeBuilder<scale_info::form::MetaForm, scale_info::build::state::PathAssigned>"*)* @"_ZN4core3ptr126drop_in_place$LT$scale_info..build..TypeBuilder$LT$scale_info..form..MetaForm$C$scale_info..build..state..PathAssigned$GT$$GT$17hdeb593293d6bc2e2E" to void (%"scale_info::build::TypeBuilder"*)*)(%"scale_info::build::TypeBuilder"* noundef nonnull %_3) #27
          to label %bb14 unwind label %abort

abort:                                            ; preds = %bb15, %bb18, %bb20
  %21 = landingpad { i8*, i32 }
          cleanup
; call core::panicking::panic_cannot_unwind
  call void @_ZN4core9panicking19panic_cannot_unwind17h4d963c01e40eff8cE() #28
  unreachable

bb19.thread128:                                   ; preds = %bb1.i
  %22 = landingpad { i8*, i32 }
          cleanup
  br label %bb18

cleanup2:                                         ; preds = %bb7, %bb5
  %23 = landingpad { i8*, i32 }
          cleanup
  %24 = bitcast i8* %18 to i64*
; call alloc::alloc::box_free
  tail call fastcc void @_ZN5alloc5alloc8box_free17h2267841298281455E(i64* noundef nonnull %24) #27
  br label %bb18

bb5:                                              ; preds = %bb3
  %25 = bitcast %"scale_info::ty::TypeParameter"* %_12 to i8*
  call void @llvm.lifetime.start.p0i8(i64 32, i8* nonnull %25)
; invoke scale_info::ty::TypeParameter::new
  invoke void @_ZN10scale_info2ty13TypeParameter3new17h9c6171b6a8edce2cE(%"scale_info::ty::TypeParameter"* noalias nocapture noundef nonnull sret(%"scale_info::ty::TypeParameter") dereferenceable(32) %_12, [0 x i8]* noalias noundef nonnull readonly align 1 bitcast (<{ [1 x i8] }>* @alloc1354 to [0 x i8]*), i64 noundef 1, i64 -3465284033164624702, i64* noundef bitcast (void (%"scale_info::ty::Type"*)* @"_ZN10scale_info5impls55_$LT$impl$u20$scale_info..TypeInfo$u20$for$u20$u128$GT$9type_info17h11402a526c41cc43E" to i64*))
          to label %bb7 unwind label %cleanup2

bb7:                                              ; preds = %bb5
  %26 = bitcast %"scale_info::ty::TypeParameter"* %_15 to i8*
  call void @llvm.lifetime.start.p0i8(i64 32, i8* nonnull %26)
; invoke scale_info::ty::TypeParameter::new
  invoke void @_ZN10scale_info2ty13TypeParameter3new17h9c6171b6a8edce2cE(%"scale_info::ty::TypeParameter"* noalias nocapture noundef nonnull sret(%"scale_info::ty::TypeParameter") dereferenceable(32) %_15, [0 x i8]* noalias noundef nonnull readonly align 1 bitcast (<{ [1 x i8] }>* @alloc1355 to [0 x i8]*), i64 noundef 1, i64 -7044183350801047663, i64* noundef bitcast (void (%"scale_info::ty::Type"*)* @"_ZN14ink_primitives1_76_$LT$impl$u20$scale_info..TypeInfo$u20$for$u20$ink_primitives..LangError$GT$9type_info17hdc478b50333345e5E" to i64*))
          to label %bb2.i unwind label %cleanup2

bb2.i:                                            ; preds = %bb7
  call void @llvm.memcpy.p0i8.p0i8.i64(i8* noundef nonnull align 8 dereferenceable(32) %18, i8* noundef nonnull align 8 dereferenceable(32) %25, i64 32, i1 false)
  %27 = getelementptr inbounds i8, i8* %18, i64 32
  call void @llvm.memcpy.p0i8.p0i8.i64(i8* noundef nonnull align 8 dereferenceable(32) %27, i8* noundef nonnull align 8 dereferenceable(32) %26, i64 32, i1 false)
  call void @llvm.lifetime.end.p0i8(i64 32, i8* nonnull %26)
  call void @llvm.lifetime.end.p0i8(i64 32, i8* nonnull %25)
  tail call void @llvm.experimental.noalias.scope.decl(metadata !427)
  tail call void @llvm.experimental.noalias.scope.decl(metadata !430)
  tail call void @llvm.experimental.noalias.scope.decl(metadata !432) #26
  %28 = getelementptr inbounds %"alloc::vec::Vec<scale_info::ty::TypeParameter>", %"alloc::vec::Vec<scale_info::ty::TypeParameter>"* %7, i64 0, i32 0, i32 0
  %_4.i.i.i.i.i = load i64, i64* %28, align 8, !alias.scope !435, !noalias !438, !noundef !59
  %_3.i.i.i.i.i = icmp eq i64 %_4.i.i.i.i.i, 0
  br i1 %_3.i.i.i.i.i, label %bb10, label %bb2.i.i.i.i

bb2.i.i.i.i:                                      ; preds = %bb2.i
  %_6.i.i.i.i.i.i = icmp ult i64 %_4.i.i.i.i.i, 288230376151711744
  %array_size.i.i.i.i.i.i = shl nuw nsw i64 %_4.i.i.i.i.i, 5
  tail call void @llvm.assume(i1 %_6.i.i.i.i.i.i) #26
  %29 = getelementptr inbounds %"scale_info::build::TypeBuilder<scale_info::form::MetaForm, scale_info::build::state::PathAssigned>", %"scale_info::build::TypeBuilder<scale_info::form::MetaForm, scale_info::build::state::PathAssigned>"* %_2, i64 0, i32 2, i32 0, i32 1
  %30 = bitcast i64** %29 to i8**
  %self11011.i.i.i.i.i = load i8*, i8** %30, align 8, !alias.scope !435, !noalias !438, !nonnull !59
  tail call void @__rust_dealloc(i8* noundef nonnull %self11011.i.i.i.i.i, i64 noundef %array_size.i.i.i.i.i.i, i64 noundef 8) #26, !noalias !441
  br label %bb10

bb18:                                             ; preds = %cleanup2, %bb19.thread128
  %.pn127 = phi { i8*, i32 } [ %22, %bb19.thread128 ], [ %23, %cleanup2 ]
; invoke core::ptr::drop_in_place<scale_info::build::TypeBuilder<scale_info::form::MetaForm,scale_info::build::state::PathAssigned>>
  invoke fastcc void @"_ZN4core3ptr126drop_in_place$LT$scale_info..build..TypeBuilder$LT$scale_info..form..MetaForm$C$scale_info..build..state..PathAssigned$GT$$GT$17hdeb593293d6bc2e2E"(%"scale_info::build::TypeBuilder<scale_info::form::MetaForm, scale_info::build::state::PathAssigned>"* noundef nonnull %_2) #27
          to label %bb14 unwind label %abort

bb10:                                             ; preds = %bb2.i, %bb2.i.i.i.i
  %_3.i.sroa.0.0..sroa_idx = getelementptr inbounds %"scale_info::build::TypeBuilder<scale_info::form::MetaForm, scale_info::build::state::PathAssigned>", %"scale_info::build::TypeBuilder<scale_info::form::MetaForm, scale_info::build::state::PathAssigned>"* %_2, i64 0, i32 2, i32 0, i32 0
  store i64 2, i64* %_3.i.sroa.0.0..sroa_idx, align 8, !noalias !442
  %_3.i.sroa.5.0..sroa_idx111 = getelementptr inbounds %"scale_info::build::TypeBuilder<scale_info::form::MetaForm, scale_info::build::state::PathAssigned>", %"scale_info::build::TypeBuilder<scale_info::form::MetaForm, scale_info::build::state::PathAssigned>"* %_2, i64 0, i32 2, i32 0, i32 1
  %31 = bitcast i64** %_3.i.sroa.5.0..sroa_idx111 to i8**
  store i8* %18, i8** %31, align 8, !noalias !442
  %_3.i.sroa.6.0..sroa_idx115 = getelementptr inbounds %"scale_info::build::TypeBuilder<scale_info::form::MetaForm, scale_info::build::state::PathAssigned>", %"scale_info::build::TypeBuilder<scale_info::form::MetaForm, scale_info::build::state::PathAssigned>"* %_2, i64 0, i32 2, i32 1
  store i64 2, i64* %_3.i.sroa.6.0..sroa_idx115, align 8, !noalias !442
  call void @llvm.memcpy.p0i8.p0i8.i64(i8* noundef nonnull align 8 dereferenceable(72) %1, i8* noundef nonnull align 8 dereferenceable(72) %2, i64 72, i1 false), !alias.scope !443, !noalias !444
  call void @llvm.lifetime.end.p0i8(i64 72, i8* nonnull %2)
  %32 = bitcast %"scale_info::build::Variants"* %_18 to i8*
  call void @llvm.lifetime.start.p0i8(i64 24, i8* nonnull %32)
  %33 = bitcast %"scale_info::build::Variants"* %_19 to i8*
  call void @llvm.lifetime.start.p0i8(i64 24, i8* nonnull %33)
  %34 = bitcast %"scale_info::build::Variants"* %_20 to i8*
  call void @llvm.lifetime.start.p0i8(i64 24, i8* nonnull %34)
  tail call void @llvm.experimental.noalias.scope.decl(metadata !445)
  %_2.1.i = load i64*, i64** bitcast (i8* getelementptr inbounds (<{ [16 x i8] }>, <{ [16 x i8] }>* @0, i64 0, i32 0, i64 8) to i64**), align 8, !noalias !445, !nonnull !59, !noundef !59
  %_1.sroa.0.0..sroa_idx.i = getelementptr inbounds %"scale_info::build::Variants", %"scale_info::build::Variants"* %_20, i64 0, i32 0, i32 0, i32 0
  store i64 0, i64* %_1.sroa.0.0..sroa_idx.i, align 8, !alias.scope !445
  %_1.sroa.4.0..sroa_idx2.i = getelementptr inbounds %"scale_info::build::Variants", %"scale_info::build::Variants"* %_20, i64 0, i32 0, i32 0, i32 1
  store i64* %_2.1.i, i64** %_1.sroa.4.0..sroa_idx2.i, align 8, !alias.scope !445
  %_1.sroa.5.0..sroa_idx4.i = getelementptr inbounds %"scale_info::build::Variants", %"scale_info::build::Variants"* %_20, i64 0, i32 0, i32 1
  store i64 0, i64* %_1.sroa.5.0..sroa_idx4.i, align 8, !alias.scope !445
  tail call void @llvm.experimental.noalias.scope.decl(metadata !448)
  tail call void @llvm.experimental.noalias.scope.decl(metadata !451)
  %35 = bitcast %"scale_info::build::VariantBuilder<scale_info::form::MetaForm, scale_info::build::variant_state::IndexAssigned>"* %builder1.i to i8*
  call void @llvm.lifetime.start.p0i8(i64 88, i8* nonnull %35)
  %36 = bitcast %"scale_info::build::VariantBuilder<scale_info::form::MetaForm, scale_info::build::variant_state::IndexAssigned>"* %_3.i.i to i8*
  call void @llvm.lifetime.start.p0i8(i64 88, i8* nonnull %36), !noalias !453
  %_6.sroa.7.sroa.0.0._6.sroa.7.32._4.sroa.7.32..sroa_idx54.i.sroa_cast.sroa_idx.i = getelementptr inbounds %"scale_info::build::VariantBuilder<scale_info::form::MetaForm, scale_info::build::variant_state::IndexAssigned>", %"scale_info::build::VariantBuilder<scale_info::form::MetaForm, scale_info::build::variant_state::IndexAssigned>"* %_3.i.i, i64 0, i32 3, i32 0, i32 0
  store i64 0, i64* %_6.sroa.7.sroa.0.0._6.sroa.7.32._4.sroa.7.32..sroa_idx54.i.sroa_cast.sroa_idx.i, align 8, !noalias !457
  %_6.sroa.7.sroa.4.0._6.sroa.7.32._4.sroa.7.32..sroa_idx54.i.sroa_cast.sroa_idx66.i = getelementptr inbounds %"scale_info::build::VariantBuilder<scale_info::form::MetaForm, scale_info::build::variant_state::IndexAssigned>", %"scale_info::build::VariantBuilder<scale_info::form::MetaForm, scale_info::build::variant_state::IndexAssigned>"* %_3.i.i, i64 0, i32 3, i32 0, i32 1
  store i64* %_2.1.i, i64** %_6.sroa.7.sroa.4.0._6.sroa.7.32._4.sroa.7.32..sroa_idx54.i.sroa_cast.sroa_idx66.i, align 8, !noalias !457
  %_6.sroa.7.sroa.5.0._6.sroa.7.32._4.sroa.7.32..sroa_idx54.i.sroa_cast.sroa_idx68.i = getelementptr inbounds %"scale_info::build::VariantBuilder<scale_info::form::MetaForm, scale_info::build::variant_state::IndexAssigned>", %"scale_info::build::VariantBuilder<scale_info::form::MetaForm, scale_info::build::variant_state::IndexAssigned>"* %_3.i.i, i64 0, i32 3, i32 1
  %_6.sroa.8.sroa.4.0._6.sroa.8.56._4.sroa.8.56..sroa_idx55.i.sroa_cast.sroa_idx56.i = getelementptr inbounds %"scale_info::build::VariantBuilder<scale_info::form::MetaForm, scale_info::build::variant_state::IndexAssigned>", %"scale_info::build::VariantBuilder<scale_info::form::MetaForm, scale_info::build::variant_state::IndexAssigned>"* %_3.i.i, i64 0, i32 4, i32 0, i32 1
  %37 = bitcast i64* %_6.sroa.7.sroa.5.0._6.sroa.7.32._4.sroa.7.32..sroa_idx54.i.sroa_cast.sroa_idx68.i to i8*
  call void @llvm.memset.p0i8.i64(i8* noundef nonnull align 8 dereferenceable(16) %37, i8 0, i64 16, i1 false), !noalias !458
  store i64* %_2.1.i, i64** %_6.sroa.8.sroa.4.0._6.sroa.8.56._4.sroa.8.56..sroa_idx55.i.sroa_cast.sroa_idx56.i, align 8, !noalias !457
  %_6.sroa.8.sroa.5.0._6.sroa.8.56._4.sroa.8.56..sroa_idx55.i.sroa_cast.sroa_idx58.i = getelementptr inbounds %"scale_info::build::VariantBuilder<scale_info::form::MetaForm, scale_info::build::variant_state::IndexAssigned>", %"scale_info::build::VariantBuilder<scale_info::form::MetaForm, scale_info::build::variant_state::IndexAssigned>"* %_3.i.i, i64 0, i32 4, i32 1
  store i64 0, i64* %_6.sroa.8.sroa.5.0._6.sroa.8.56._4.sroa.8.56..sroa_idx55.i.sroa_cast.sroa_idx58.i, align 8, !noalias !457
  %38 = bitcast %"scale_info::build::VariantBuilder<scale_info::form::MetaForm, scale_info::build::variant_state::IndexAssigned>"* %_3.i.i to [0 x i8]**
  store [0 x i8]* bitcast (<{ [2 x i8] }>* @alloc1356 to [0 x i8]*), [0 x i8]** %38, align 8, !alias.scope !459, !noalias !462
  %39 = getelementptr inbounds %"scale_info::build::VariantBuilder<scale_info::form::MetaForm, scale_info::build::variant_state::IndexAssigned>", %"scale_info::build::VariantBuilder<scale_info::form::MetaForm, scale_info::build::variant_state::IndexAssigned>"* %_3.i.i, i64 0, i32 1, i32 1
  store i64 2, i64* %39, align 8, !alias.scope !459, !noalias !462
  %40 = getelementptr inbounds %"scale_info::build::VariantBuilder<scale_info::form::MetaForm, scale_info::build::variant_state::IndexAssigned>", %"scale_info::build::VariantBuilder<scale_info::form::MetaForm, scale_info::build::variant_state::IndexAssigned>"* %_3.i.i, i64 0, i32 5, i32 0
  store i8 1, i8* %40, align 8, !alias.scope !459, !noalias !462
  %41 = getelementptr inbounds %"scale_info::build::VariantBuilder<scale_info::form::MetaForm, scale_info::build::variant_state::IndexAssigned>", %"scale_info::build::VariantBuilder<scale_info::form::MetaForm, scale_info::build::variant_state::IndexAssigned>"* %_3.i.i, i64 0, i32 5, i32 1
  store i8 0, i8* %41, align 1, !alias.scope !459, !noalias !462
  %42 = getelementptr inbounds %"scale_info::build::VariantBuilder<scale_info::form::MetaForm, scale_info::build::variant_state::IndexAssigned>", %"scale_info::build::VariantBuilder<scale_info::form::MetaForm, scale_info::build::variant_state::IndexAssigned>"* %_3.i.i, i64 0, i32 2, i32 0
  store i64 0, i64* %42, align 8, !alias.scope !459, !noalias !462
  %43 = bitcast %"scale_info::build::FieldsBuilder<scale_info::form::MetaForm, scale_info::build::UnnamedFields>"* %_7.i.i.i to i8*
  call void @llvm.lifetime.start.p0i8(i64 24, i8* nonnull %43), !noalias !464
  %_6.sroa.0.0..sroa_cast.i.i = bitcast %"scale_info::build::FieldsBuilder<scale_info::form::MetaForm, scale_info::build::UnnamedFields>"* %_7.i.i.i to i64*
  store i64 0, i64* %_6.sroa.0.0..sroa_cast.i.i, align 8, !noalias !468
  %_6.sroa.5.0..sroa_idx31.i.i = getelementptr inbounds %"scale_info::build::FieldsBuilder<scale_info::form::MetaForm, scale_info::build::UnnamedFields>", %"scale_info::build::FieldsBuilder<scale_info::form::MetaForm, scale_info::build::UnnamedFields>"* %_7.i.i.i, i64 0, i32 1, i32 0, i32 1
  store i64* %_2.1.i, i64** %_6.sroa.5.0..sroa_idx31.i.i, align 8, !noalias !468
  %_6.sroa.6.0..sroa_idx35.i.i = getelementptr inbounds %"scale_info::build::FieldsBuilder<scale_info::form::MetaForm, scale_info::build::UnnamedFields>", %"scale_info::build::FieldsBuilder<scale_info::form::MetaForm, scale_info::build::UnnamedFields>"* %_7.i.i.i, i64 0, i32 1, i32 1
  store i64 0, i64* %_6.sroa.6.0..sroa_idx35.i.i, align 8, !noalias !468
  %44 = bitcast %"scale_info::ty::fields::Field"* %_8.i.i.i to i8*
  call void @llvm.lifetime.start.p0i8(i64 72, i8* nonnull %44), !noalias !464
  tail call void @llvm.experimental.noalias.scope.decl(metadata !469)
  %_9.sroa.687.48..sroa_idx.i.i.i = getelementptr inbounds %"scale_info::ty::fields::Field", %"scale_info::ty::fields::Field"* %_8.i.i.i, i64 0, i32 3, i32 0, i32 0
  store i64 0, i64* %_9.sroa.687.48..sroa_idx.i.i.i, align 8, !alias.scope !472, !noalias !464
  %_9.sroa.8.48..sroa_idx90.i.i.i = getelementptr inbounds %"scale_info::ty::fields::Field", %"scale_info::ty::fields::Field"* %_8.i.i.i, i64 0, i32 3, i32 0, i32 1
  store i64* %_2.1.i, i64** %_9.sroa.8.48..sroa_idx90.i.i.i, align 8, !alias.scope !472, !noalias !464
  %_9.sroa.9.48..sroa_idx92.i.i.i = getelementptr inbounds %"scale_info::ty::fields::Field", %"scale_info::ty::fields::Field"* %_8.i.i.i, i64 0, i32 3, i32 1
  store i64 0, i64* %_9.sroa.9.48..sroa_idx92.i.i.i, align 8, !alias.scope !472, !noalias !464
  %45 = getelementptr inbounds %"scale_info::ty::fields::Field", %"scale_info::ty::fields::Field"* %_8.i.i.i, i64 0, i32 0, i32 0
  store i8* null, i8** %45, align 8, !alias.scope !474, !noalias !477
  %46 = getelementptr inbounds %"scale_info::ty::fields::Field", %"scale_info::ty::fields::Field"* %_8.i.i.i, i64 0, i32 2, i32 0
  store i64 -3465284033164624702, i64* %46, align 8, !alias.scope !474, !noalias !477
  %47 = getelementptr inbounds %"scale_info::ty::fields::Field", %"scale_info::ty::fields::Field"* %_8.i.i.i, i64 0, i32 2, i32 1
  store i64* bitcast (void (%"scale_info::ty::Type"*)* @"_ZN10scale_info5impls55_$LT$impl$u20$scale_info..TypeInfo$u20$for$u20$u128$GT$9type_info17h11402a526c41cc43E" to i64*), i64** %47, align 8, !alias.scope !474, !noalias !477
  %48 = getelementptr inbounds %"scale_info::ty::fields::Field", %"scale_info::ty::fields::Field"* %_8.i.i.i, i64 0, i32 1, i32 0
  store i8* null, i8** %48, align 8, !alias.scope !474, !noalias !477
  tail call void @llvm.experimental.noalias.scope.decl(metadata !481)
  tail call void @llvm.experimental.noalias.scope.decl(metadata !484)
  %_5.i.i.i.i = getelementptr inbounds %"scale_info::ty::fields::Field", %"scale_info::ty::fields::Field"* %_8.i.i.i, i64 0, i32 2
; invoke scale_info::meta_type::MetaType::is_phantom
  %_4.i.i.i.i = invoke noundef zeroext i1 @_ZN10scale_info9meta_type8MetaType10is_phantom17hc147d9272919729eE({ i64, i64* }* noalias noundef nonnull readonly align 8 dereferenceable(16) %_5.i.i.i.i)
          to label %bb1.i.i.i.i unwind label %bb9.i11.i.i.i, !noalias !486

cleanup.body.i:                                   ; preds = %cleanup.i.i, %bb8.i.i, %bb6.i.i
  %eh.lpad-body.i = phi { i8*, i32 } [ %.pn.ph.i.i.i.i, %bb6.i.i ], [ %68, %bb8.i.i ], [ %82, %cleanup.i.i ]
; invoke core::ptr::drop_in_place<scale_info::build::Variants>
  invoke fastcc void @"_ZN4core3ptr48drop_in_place$LT$scale_info..build..Variants$GT$17h969a766fc647e422E"(%"scale_info::build::Variants"* noundef nonnull %_20) #27
          to label %bb15 unwind label %abort.i27, !noalias !448

bb1.i.i.i.i:                                      ; preds = %bb10
  br i1 %_4.i.i.i.i, label %bb8.i.i.i.i, label %bb1.i16.i.i.i

bb1.i16.i.i.i:                                    ; preds = %bb1.i.i.i.i
  %49 = bitcast %"scale_info::ty::fields::Field"* %_8.i.i.i.i to i8*
  call void @llvm.lifetime.start.p0i8(i64 72, i8* nonnull %49), !noalias !487
  call void @llvm.memcpy.p0i8.p0i8.i64(i8* noundef nonnull align 8 dereferenceable(72) %49, i8* noundef nonnull align 8 dereferenceable(72) %44, i64 72, i1 false), !noalias !486
  call void @llvm.experimental.noalias.scope.decl(metadata !489)
  %self1.i.i.i.i = bitcast %"scale_info::build::FieldsBuilder<scale_info::form::MetaForm, scale_info::build::UnnamedFields>"* %_7.i.i.i to { i64, i64* }*
; invoke alloc::raw_vec::RawVec<T,A>::reserve_for_push
  invoke fastcc void @"_ZN5alloc7raw_vec19RawVec$LT$T$C$A$GT$16reserve_for_push17h9a7fc05835fd945bE"({ i64, i64* }* noalias noundef nonnull align 8 dereferenceable(16) %self1.i.i.i.i, i64 noundef 0)
          to label %bb3.i10.i.i.i unwind label %cleanup.i17.i.i.i, !noalias !492

cleanup.i17.i.i.i:                                ; preds = %bb1.i16.i.i.i
  %50 = landingpad { i8*, i32 }
          cleanup
  br label %bb6.i.i

bb3.i10.i.i.i:                                    ; preds = %bb1.i16.i.i.i
  %count.pre.i.i.i.i = load i64, i64* %_6.sroa.6.0..sroa_idx35.i.i, align 8, !alias.scope !489, !noalias !492
  %51 = bitcast i64** %_6.sroa.5.0..sroa_idx31.i.i to %"scale_info::ty::fields::Field"**
  %self313.i.i.i.i = load %"scale_info::ty::fields::Field"*, %"scale_info::ty::fields::Field"** %51, align 8, !alias.scope !489, !noalias !492, !nonnull !59
  %52 = getelementptr inbounds %"scale_info::ty::fields::Field", %"scale_info::ty::fields::Field"* %self313.i.i.i.i, i64 %count.pre.i.i.i.i
  %53 = bitcast %"scale_info::ty::fields::Field"* %52 to i8*
  call void @llvm.memcpy.p0i8.p0i8.i64(i8* noundef nonnull align 8 dereferenceable(72) %53, i8* noundef nonnull align 8 dereferenceable(72) %49, i64 72, i1 false), !noalias !494
  %54 = add i64 %count.pre.i.i.i.i, 1
  store i64 %54, i64* %_6.sroa.6.0..sroa_idx35.i.i, align 8, !alias.scope !489, !noalias !492
  call void @llvm.lifetime.end.p0i8(i64 72, i8* nonnull %49), !noalias !487
  %_5.sroa.0.sroa.0.0.copyload.i.i = load i64, i64* %_6.sroa.0.0..sroa_cast.i.i, align 8, !alias.scope !495, !noalias !496
  %55 = bitcast %"scale_info::ty::fields::Field"* %self313.i.i.i.i to i64*
  br label %bb2.i25

bb9.i11.i.i.i:                                    ; preds = %bb10
  %56 = landingpad { i8*, i32 }
          cleanup
  br label %bb6.i.i

bb8.i.i.i.i:                                      ; preds = %bb1.i.i.i.i
  call void @llvm.experimental.noalias.scope.decl(metadata !497) #26, !noalias !495
  %_4.i.i.i.i.i.i.i.i = load i64, i64* %_9.sroa.687.48..sroa_idx.i.i.i, align 8, !alias.scope !500, !noalias !503, !noundef !59
  %_3.i.i.i.i.i.i.i.i = icmp eq i64 %_4.i.i.i.i.i.i.i.i, 0
  br i1 %_3.i.i.i.i.i.i.i.i, label %bb2.i25, label %bb2.i.i.i.i.i.i.i

bb2.i.i.i.i.i.i.i:                                ; preds = %bb8.i.i.i.i
  %_6.i.i.i.i.i.i.i.i.i = icmp ult i64 %_4.i.i.i.i.i.i.i.i, 576460752303423488
  %array_size.i.i.i.i.i.i.i.i.i = shl nuw nsw i64 %_4.i.i.i.i.i.i.i.i, 4
  call void @llvm.assume(i1 %_6.i.i.i.i.i.i.i.i.i) #26, !noalias !495
  %57 = bitcast i64** %_9.sroa.8.48..sroa_idx90.i.i.i to i8**
  %self11011.i.i.i.i.i.i.i.i = load i8*, i8** %57, align 8, !alias.scope !500, !noalias !503, !nonnull !59
  call void @__rust_dealloc(i8* noundef nonnull %self11011.i.i.i.i.i.i.i.i, i64 noundef %array_size.i.i.i.i.i.i.i.i.i, i64 noundef 8) #26, !noalias !505
  br label %bb2.i25

bb6.i.i:                                          ; preds = %bb9.i11.i.i.i, %cleanup.i17.i.i.i
  %_8.i.sink.i.i.i = phi %"scale_info::ty::fields::Field"* [ %_8.i.i.i.i, %cleanup.i17.i.i.i ], [ %_8.i.i.i, %bb9.i11.i.i.i ]
  %.pn.ph.i.i.i.i = phi { i8*, i32 } [ %50, %cleanup.i17.i.i.i ], [ %56, %bb9.i11.i.i.i ]
; call core::ptr::drop_in_place<scale_info::ty::fields::Field>
  call fastcc void @"_ZN4core3ptr50drop_in_place$LT$scale_info..ty..fields..Field$GT$17h12cb7017fa87fa5cE"(%"scale_info::ty::fields::Field"* noundef nonnull %_8.i.sink.i.i.i) #27, !noalias !506
  call fastcc void bitcast (void (%"scale_info::build::FieldsBuilder<scale_info::form::MetaForm, scale_info::build::NamedFields>"*)* @"_ZN4core3ptr120drop_in_place$LT$scale_info..build..FieldsBuilder$LT$scale_info..form..MetaForm$C$scale_info..build..NamedFields$GT$$GT$17hc1dcf047f74888d8E" to void (%"scale_info::build::FieldsBuilder<scale_info::form::MetaForm, scale_info::build::UnnamedFields>"*)*)(%"scale_info::build::FieldsBuilder<scale_info::form::MetaForm, scale_info::build::UnnamedFields>"* noundef nonnull %_7.i.i.i) #27, !noalias !506
; invoke core::ptr::drop_in_place<scale_info::build::VariantBuilder<scale_info::form::MetaForm,scale_info::build::variant_state::IndexAssigned>>
  invoke fastcc void @"_ZN4core3ptr138drop_in_place$LT$scale_info..build..VariantBuilder$LT$scale_info..form..MetaForm$C$scale_info..build..variant_state..IndexAssigned$GT$$GT$17hec2fbcef90c23f4aE"(%"scale_info::build::VariantBuilder<scale_info::form::MetaForm, scale_info::build::variant_state::IndexAssigned>"* noundef nonnull %_3.i.i) #27
          to label %cleanup.body.i unwind label %abort.i.i, !noalias !453

abort.i.i:                                        ; preds = %bb6.i.i
  %58 = landingpad { i8*, i32 }
          cleanup
; call core::panicking::panic_cannot_unwind
  call void @_ZN4core9panicking19panic_cannot_unwind17h4d963c01e40eff8cE() #28, !noalias !453
  unreachable

bb2.i25:                                          ; preds = %bb2.i.i.i.i.i.i.i, %bb8.i.i.i.i, %bb3.i10.i.i.i
  %_5.sroa.0.sroa.0.0.i.i = phi i64 [ 0, %bb8.i.i.i.i ], [ 0, %bb2.i.i.i.i.i.i.i ], [ %_5.sroa.0.sroa.0.0.copyload.i.i, %bb3.i10.i.i.i ]
  %_5.sroa.0.sroa.5.0.i.i = phi i64* [ %_2.1.i, %bb8.i.i.i.i ], [ %_2.1.i, %bb2.i.i.i.i.i.i.i ], [ %55, %bb3.i10.i.i.i ]
  %_5.sroa.0.sroa.6.0.i.i = phi i64 [ 0, %bb8.i.i.i.i ], [ 0, %bb2.i.i.i.i.i.i.i ], [ %54, %bb3.i10.i.i.i ]
  call void @llvm.lifetime.end.p0i8(i64 72, i8* nonnull %44), !noalias !464
  call void @llvm.lifetime.end.p0i8(i64 24, i8* nonnull %43), !noalias !464
  call void @llvm.experimental.noalias.scope.decl(metadata !507)
  call void @llvm.experimental.noalias.scope.decl(metadata !510)
  store i64 %_5.sroa.0.sroa.0.0.i.i, i64* %_6.sroa.7.sroa.0.0._6.sroa.7.32._4.sroa.7.32..sroa_idx54.i.sroa_cast.sroa_idx.i, align 8, !alias.scope !512, !noalias !514
  store i64* %_5.sroa.0.sroa.5.0.i.i, i64** %_6.sroa.7.sroa.4.0._6.sroa.7.32._4.sroa.7.32..sroa_idx54.i.sroa_cast.sroa_idx66.i, align 8, !alias.scope !512, !noalias !514
  store i64 %_5.sroa.0.sroa.6.0.i.i, i64* %_6.sroa.7.sroa.5.0._6.sroa.7.32._4.sroa.7.32..sroa_idx54.i.sroa_cast.sroa_idx68.i, align 8, !alias.scope !512, !noalias !514
  call void @llvm.memcpy.p0i8.p0i8.i64(i8* noundef nonnull align 8 dereferenceable(88) %35, i8* noundef nonnull align 8 dereferenceable(88) %36, i64 88, i1 false), !alias.scope !515, !noalias !516
  call void @llvm.lifetime.end.p0i8(i64 88, i8* nonnull %36), !noalias !453
  %59 = bitcast %"scale_info::ty::variant::Variant"* %_11.i to i8*
  call void @llvm.lifetime.start.p0i8(i64 72, i8* nonnull %59), !noalias !458
  %60 = bitcast %"scale_info::build::VariantBuilder<scale_info::form::MetaForm, scale_info::build::variant_state::IndexAssigned>"* %_12.i to i8*
  call void @llvm.lifetime.start.p0i8(i64 88, i8* nonnull %60), !noalias !458
  call void @llvm.memcpy.p0i8.p0i8.i64(i8* noundef nonnull align 8 dereferenceable(88) %60, i8* noundef nonnull align 8 dereferenceable(88) %35, i64 88, i1 false), !noalias !458
  call void @llvm.experimental.noalias.scope.decl(metadata !517)
  call void @llvm.experimental.noalias.scope.decl(metadata !520)
  %61 = bitcast %"scale_info::build::VariantBuilder<scale_info::form::MetaForm, scale_info::build::variant_state::IndexAssigned>"* %_12.i to [0 x i8]**
  %_2.0.i.i = load [0 x i8]*, [0 x i8]** %61, align 8, !alias.scope !520, !noalias !522, !nonnull !59, !align !298, !noundef !59
  %62 = getelementptr inbounds %"scale_info::build::VariantBuilder<scale_info::form::MetaForm, scale_info::build::variant_state::IndexAssigned>", %"scale_info::build::VariantBuilder<scale_info::form::MetaForm, scale_info::build::variant_state::IndexAssigned>"* %_12.i, i64 0, i32 1, i32 1
  %_2.1.i.i = load i64, i64* %62, align 8, !alias.scope !520, !noalias !522, !noundef !59
  %63 = bitcast %"alloc::vec::Vec<scale_info::ty::fields::Field>"* %_3.i1.i to i8*
  call void @llvm.lifetime.start.p0i8(i64 24, i8* nonnull %63), !noalias !523
  %64 = getelementptr inbounds %"scale_info::build::VariantBuilder<scale_info::form::MetaForm, scale_info::build::variant_state::IndexAssigned>", %"scale_info::build::VariantBuilder<scale_info::form::MetaForm, scale_info::build::variant_state::IndexAssigned>"* %_12.i, i64 0, i32 3
  %65 = bitcast %"alloc::vec::Vec<scale_info::ty::fields::Field>"* %64 to i8*
  call void @llvm.memcpy.p0i8.p0i8.i64(i8* noundef nonnull align 8 dereferenceable(24) %63, i8* noundef nonnull align 8 dereferenceable(24) %65, i64 24, i1 false), !noalias !522
  %66 = getelementptr inbounds %"scale_info::build::VariantBuilder<scale_info::form::MetaForm, scale_info::build::variant_state::IndexAssigned>", %"scale_info::build::VariantBuilder<scale_info::form::MetaForm, scale_info::build::variant_state::IndexAssigned>"* %_12.i, i64 0, i32 5, i32 0
  %67 = load i8, i8* %66, align 8, !range !300, !alias.scope !520, !noalias !522, !noundef !59
  %switch.not.i.i = icmp eq i8 %67, 1
  br i1 %switch.not.i.i, label %bb1.i.i, label %bb9.i.i

bb9.i.i:                                          ; preds = %bb2.i25
; invoke core::option::expect_failed
  invoke void @_ZN4core6option13expect_failed17h8fad9fe05aab103eE([0 x i8]* noalias noundef nonnull readonly align 1 bitcast (<{ [39 x i8] }>* @alloc1345 to [0 x i8]*), i64 noundef 39, %"core::panic::location::Location<'_>"* noalias noundef readonly align 8 dereferenceable(24) bitcast (<{ i8*, [16 x i8] }>* @alloc1347 to %"core::panic::location::Location<'_>"*)) #25
          to label %unreachable.i.i unwind label %bb5.i2.i, !noalias !523

unreachable.i.i:                                  ; preds = %bb9.i.i
  unreachable

bb5.i2.i:                                         ; preds = %bb9.i.i
  %68 = landingpad { i8*, i32 }
          cleanup
; invoke core::ptr::drop_in_place<alloc::vec::Vec<scale_info::ty::fields::Field>>
  invoke fastcc void @"_ZN4core3ptr73drop_in_place$LT$alloc..vec..Vec$LT$scale_info..ty..fields..Field$GT$$GT$17ha7ef1429b3c6bf69E"(%"alloc::vec::Vec<scale_info::ty::fields::Field>"* noundef nonnull %_3.i1.i) #27
          to label %bb8.i.i unwind label %abort.i3.i, !noalias !523

abort.i3.i:                                       ; preds = %bb8.i.i, %bb5.i2.i
  %69 = landingpad { i8*, i32 }
          cleanup
; call core::panicking::panic_cannot_unwind
  call void @_ZN4core9panicking19panic_cannot_unwind17h4d963c01e40eff8cE() #28, !noalias !523
  unreachable

bb8.i.i:                                          ; preds = %bb5.i2.i
  %70 = getelementptr inbounds %"scale_info::build::VariantBuilder<scale_info::form::MetaForm, scale_info::build::variant_state::IndexAssigned>", %"scale_info::build::VariantBuilder<scale_info::form::MetaForm, scale_info::build::variant_state::IndexAssigned>"* %_12.i, i64 0, i32 4
; invoke core::ptr::drop_in_place<alloc::vec::Vec<&str>>
  invoke fastcc void @"_ZN4core3ptr51drop_in_place$LT$alloc..vec..Vec$LT$$RF$str$GT$$GT$17ha2aba66971651084E"(%"alloc::vec::Vec<&str>"* noundef nonnull %70) #27
          to label %cleanup.body.i unwind label %abort.i3.i, !noalias !522

bb1.i.i:                                          ; preds = %bb2.i25
  %71 = getelementptr inbounds %"scale_info::build::VariantBuilder<scale_info::form::MetaForm, scale_info::build::variant_state::IndexAssigned>", %"scale_info::build::VariantBuilder<scale_info::form::MetaForm, scale_info::build::variant_state::IndexAssigned>"* %_12.i, i64 0, i32 5, i32 1
  %72 = load i8, i8* %71, align 1, !alias.scope !520, !noalias !522
  %73 = getelementptr inbounds %"scale_info::build::VariantBuilder<scale_info::form::MetaForm, scale_info::build::variant_state::IndexAssigned>", %"scale_info::build::VariantBuilder<scale_info::form::MetaForm, scale_info::build::variant_state::IndexAssigned>"* %_12.i, i64 0, i32 4
  %74 = bitcast %"alloc::vec::Vec<&str>"* %73 to i8*
  %75 = getelementptr inbounds %"scale_info::ty::variant::Variant", %"scale_info::ty::variant::Variant"* %_11.i, i64 0, i32 2
  %76 = bitcast %"alloc::vec::Vec<&str>"* %75 to i8*
  call void @llvm.memcpy.p0i8.p0i8.i64(i8* noundef nonnull align 8 dereferenceable(24) %76, i8* noundef nonnull align 8 dereferenceable(24) %74, i64 24, i1 false), !alias.scope !524, !noalias !458
  %77 = getelementptr inbounds %"scale_info::ty::variant::Variant", %"scale_info::ty::variant::Variant"* %_11.i, i64 0, i32 1
  %78 = bitcast %"alloc::vec::Vec<scale_info::ty::fields::Field>"* %77 to i8*
  call void @llvm.memcpy.p0i8.p0i8.i64(i8* noundef nonnull align 8 dereferenceable(24) %78, i8* noundef nonnull align 8 dereferenceable(24) %65, i64 24, i1 false), !alias.scope !524, !noalias !458
  %79 = getelementptr inbounds %"scale_info::ty::variant::Variant", %"scale_info::ty::variant::Variant"* %_11.i, i64 0, i32 0, i32 0
  store [0 x i8]* %_2.0.i.i, [0 x i8]** %79, align 8, !alias.scope !525, !noalias !528
  %80 = getelementptr inbounds %"scale_info::ty::variant::Variant", %"scale_info::ty::variant::Variant"* %_11.i, i64 0, i32 0, i32 1
  store i64 %_2.1.i.i, i64* %80, align 8, !alias.scope !525, !noalias !528
  %81 = getelementptr inbounds %"scale_info::ty::variant::Variant", %"scale_info::ty::variant::Variant"* %_11.i, i64 0, i32 3
  store i8 %72, i8* %81, align 8, !alias.scope !525, !noalias !528
  call void @llvm.lifetime.end.p0i8(i64 24, i8* nonnull %63), !noalias !523
  call void @llvm.lifetime.end.p0i8(i64 88, i8* nonnull %60), !noalias !458
  call void @llvm.experimental.noalias.scope.decl(metadata !532)
  %self1.i.i = getelementptr inbounds %"scale_info::build::Variants", %"scale_info::build::Variants"* %_20, i64 0, i32 0, i32 0
; invoke alloc::raw_vec::RawVec<T,A>::reserve_for_push
  invoke fastcc void @"_ZN5alloc7raw_vec19RawVec$LT$T$C$A$GT$16reserve_for_push17h9a7fc05835fd945bE"({ i64, i64* }* noalias noundef nonnull align 8 dereferenceable(16) %self1.i.i, i64 noundef 0)
          to label %bb11 unwind label %cleanup.i.i, !noalias !535

cleanup.i.i:                                      ; preds = %bb1.i.i
  %82 = landingpad { i8*, i32 }
          cleanup
; invoke core::ptr::drop_in_place<scale_info::ty::variant::Variant>
  invoke fastcc void @"_ZN4core3ptr53drop_in_place$LT$scale_info..ty..variant..Variant$GT$17hc4b4ab9c63d22c6eE"(%"scale_info::ty::variant::Variant"* noundef nonnull %_11.i) #27
          to label %cleanup.body.i unwind label %abort.i9.i, !noalias !537

abort.i9.i:                                       ; preds = %cleanup.i.i
  %83 = landingpad { i8*, i32 }
          cleanup
; call core::panicking::panic_cannot_unwind
  call void @_ZN4core9panicking19panic_cannot_unwind17h4d963c01e40eff8cE() #28, !noalias !538
  unreachable

abort.i27:                                        ; preds = %cleanup.body.i
  %84 = landingpad { i8*, i32 }
          cleanup
; call core::panicking::panic_cannot_unwind
  call void @_ZN4core9panicking19panic_cannot_unwind17h4d963c01e40eff8cE() #28, !noalias !458
  unreachable

bb11:                                             ; preds = %bb1.i.i
  %count.pre.i.i = load i64, i64* %_1.sroa.5.0..sroa_idx4.i, align 8, !alias.scope !539, !noalias !535
  %.phi.trans.insert = bitcast i64** %_1.sroa.4.0..sroa_idx2.i to %"scale_info::ty::variant::Variant"**
  %self313.i.i.pre = load %"scale_info::ty::variant::Variant"*, %"scale_info::ty::variant::Variant"** %.phi.trans.insert, align 8, !alias.scope !539, !noalias !535
  %85 = getelementptr inbounds %"scale_info::ty::variant::Variant", %"scale_info::ty::variant::Variant"* %self313.i.i.pre, i64 %count.pre.i.i
  %86 = bitcast %"scale_info::ty::variant::Variant"* %85 to i8*
  call void @llvm.memcpy.p0i8.p0i8.i64(i8* noundef nonnull align 8 dereferenceable(72) %86, i8* noundef nonnull align 8 dereferenceable(72) %59, i64 72, i1 false), !noalias !537
  %87 = add i64 %count.pre.i.i, 1
  store i64 %87, i64* %_1.sroa.5.0..sroa_idx4.i, align 8, !alias.scope !539, !noalias !535
  call void @llvm.lifetime.end.p0i8(i64 72, i8* nonnull %59), !noalias !458
  call void @llvm.memcpy.p0i8.p0i8.i64(i8* noundef nonnull align 8 dereferenceable(24) %33, i8* noundef nonnull align 8 dereferenceable(24) %34, i64 24, i1 false), !alias.scope !458
  call void @llvm.lifetime.end.p0i8(i64 88, i8* nonnull %35)
  call void @llvm.lifetime.end.p0i8(i64 24, i8* nonnull %34)
  call void @llvm.experimental.noalias.scope.decl(metadata !540)
  call void @llvm.experimental.noalias.scope.decl(metadata !543)
  %88 = bitcast %"scale_info::build::VariantBuilder<scale_info::form::MetaForm, scale_info::build::variant_state::IndexAssigned>"* %builder1.i36 to i8*
  call void @llvm.lifetime.start.p0i8(i64 88, i8* nonnull %88)
  %89 = bitcast %"scale_info::build::VariantBuilder<scale_info::form::MetaForm, scale_info::build::variant_state::IndexAssigned>"* %_3.i.i33 to i8*
  call void @llvm.lifetime.start.p0i8(i64 88, i8* nonnull %89), !noalias !545
  %_6.sroa.7.sroa.0.0._6.sroa.7.32._4.sroa.7.32..sroa_idx54.i.sroa_cast.sroa_idx.i38 = getelementptr inbounds %"scale_info::build::VariantBuilder<scale_info::form::MetaForm, scale_info::build::variant_state::IndexAssigned>", %"scale_info::build::VariantBuilder<scale_info::form::MetaForm, scale_info::build::variant_state::IndexAssigned>"* %_3.i.i33, i64 0, i32 3, i32 0, i32 0
  store i64 0, i64* %_6.sroa.7.sroa.0.0._6.sroa.7.32._4.sroa.7.32..sroa_idx54.i.sroa_cast.sroa_idx.i38, align 8, !noalias !549
  %_6.sroa.7.sroa.4.0._6.sroa.7.32._4.sroa.7.32..sroa_idx54.i.sroa_cast.sroa_idx66.i39 = getelementptr inbounds %"scale_info::build::VariantBuilder<scale_info::form::MetaForm, scale_info::build::variant_state::IndexAssigned>", %"scale_info::build::VariantBuilder<scale_info::form::MetaForm, scale_info::build::variant_state::IndexAssigned>"* %_3.i.i33, i64 0, i32 3, i32 0, i32 1
  store i64* %_2.1.i, i64** %_6.sroa.7.sroa.4.0._6.sroa.7.32._4.sroa.7.32..sroa_idx54.i.sroa_cast.sroa_idx66.i39, align 8, !noalias !549
  %_6.sroa.7.sroa.5.0._6.sroa.7.32._4.sroa.7.32..sroa_idx54.i.sroa_cast.sroa_idx68.i40 = getelementptr inbounds %"scale_info::build::VariantBuilder<scale_info::form::MetaForm, scale_info::build::variant_state::IndexAssigned>", %"scale_info::build::VariantBuilder<scale_info::form::MetaForm, scale_info::build::variant_state::IndexAssigned>"* %_3.i.i33, i64 0, i32 3, i32 1
  %_6.sroa.8.sroa.4.0._6.sroa.8.56._4.sroa.8.56..sroa_idx55.i.sroa_cast.sroa_idx56.i41 = getelementptr inbounds %"scale_info::build::VariantBuilder<scale_info::form::MetaForm, scale_info::build::variant_state::IndexAssigned>", %"scale_info::build::VariantBuilder<scale_info::form::MetaForm, scale_info::build::variant_state::IndexAssigned>"* %_3.i.i33, i64 0, i32 4, i32 0, i32 1
  %90 = bitcast i64* %_6.sroa.7.sroa.5.0._6.sroa.7.32._4.sroa.7.32..sroa_idx54.i.sroa_cast.sroa_idx68.i40 to i8*
  call void @llvm.memset.p0i8.i64(i8* noundef nonnull align 8 dereferenceable(16) %90, i8 0, i64 16, i1 false), !noalias !550
  store i64* %_2.1.i, i64** %_6.sroa.8.sroa.4.0._6.sroa.8.56._4.sroa.8.56..sroa_idx55.i.sroa_cast.sroa_idx56.i41, align 8, !noalias !549
  %_6.sroa.8.sroa.5.0._6.sroa.8.56._4.sroa.8.56..sroa_idx55.i.sroa_cast.sroa_idx58.i42 = getelementptr inbounds %"scale_info::build::VariantBuilder<scale_info::form::MetaForm, scale_info::build::variant_state::IndexAssigned>", %"scale_info::build::VariantBuilder<scale_info::form::MetaForm, scale_info::build::variant_state::IndexAssigned>"* %_3.i.i33, i64 0, i32 4, i32 1
  store i64 0, i64* %_6.sroa.8.sroa.5.0._6.sroa.8.56._4.sroa.8.56..sroa_idx55.i.sroa_cast.sroa_idx58.i42, align 8, !noalias !549
  %91 = bitcast %"scale_info::build::VariantBuilder<scale_info::form::MetaForm, scale_info::build::variant_state::IndexAssigned>"* %_3.i.i33 to [0 x i8]**
  store [0 x i8]* bitcast (<{ [3 x i8] }>* @alloc1357 to [0 x i8]*), [0 x i8]** %91, align 8, !alias.scope !551, !noalias !554
  %92 = getelementptr inbounds %"scale_info::build::VariantBuilder<scale_info::form::MetaForm, scale_info::build::variant_state::IndexAssigned>", %"scale_info::build::VariantBuilder<scale_info::form::MetaForm, scale_info::build::variant_state::IndexAssigned>"* %_3.i.i33, i64 0, i32 1, i32 1
  store i64 3, i64* %92, align 8, !alias.scope !551, !noalias !554
  %93 = getelementptr inbounds %"scale_info::build::VariantBuilder<scale_info::form::MetaForm, scale_info::build::variant_state::IndexAssigned>", %"scale_info::build::VariantBuilder<scale_info::form::MetaForm, scale_info::build::variant_state::IndexAssigned>"* %_3.i.i33, i64 0, i32 5, i32 0
  store i8 1, i8* %93, align 8, !alias.scope !551, !noalias !554
  %94 = getelementptr inbounds %"scale_info::build::VariantBuilder<scale_info::form::MetaForm, scale_info::build::variant_state::IndexAssigned>", %"scale_info::build::VariantBuilder<scale_info::form::MetaForm, scale_info::build::variant_state::IndexAssigned>"* %_3.i.i33, i64 0, i32 5, i32 1
  store i8 1, i8* %94, align 1, !alias.scope !551, !noalias !554
  %95 = getelementptr inbounds %"scale_info::build::VariantBuilder<scale_info::form::MetaForm, scale_info::build::variant_state::IndexAssigned>", %"scale_info::build::VariantBuilder<scale_info::form::MetaForm, scale_info::build::variant_state::IndexAssigned>"* %_3.i.i33, i64 0, i32 2, i32 0
  store i64 0, i64* %95, align 8, !alias.scope !551, !noalias !554
  %96 = bitcast %"scale_info::build::FieldsBuilder<scale_info::form::MetaForm, scale_info::build::UnnamedFields>"* %_7.i.i.i32 to i8*
  call void @llvm.lifetime.start.p0i8(i64 24, i8* nonnull %96), !noalias !556
  %_6.sroa.0.0..sroa_cast.i.i43 = bitcast %"scale_info::build::FieldsBuilder<scale_info::form::MetaForm, scale_info::build::UnnamedFields>"* %_7.i.i.i32 to i64*
  store i64 0, i64* %_6.sroa.0.0..sroa_cast.i.i43, align 8, !noalias !560
  %_6.sroa.5.0..sroa_idx31.i.i44 = getelementptr inbounds %"scale_info::build::FieldsBuilder<scale_info::form::MetaForm, scale_info::build::UnnamedFields>", %"scale_info::build::FieldsBuilder<scale_info::form::MetaForm, scale_info::build::UnnamedFields>"* %_7.i.i.i32, i64 0, i32 1, i32 0, i32 1
  store i64* %_2.1.i, i64** %_6.sroa.5.0..sroa_idx31.i.i44, align 8, !noalias !560
  %_6.sroa.6.0..sroa_idx35.i.i45 = getelementptr inbounds %"scale_info::build::FieldsBuilder<scale_info::form::MetaForm, scale_info::build::UnnamedFields>", %"scale_info::build::FieldsBuilder<scale_info::form::MetaForm, scale_info::build::UnnamedFields>"* %_7.i.i.i32, i64 0, i32 1, i32 1
  store i64 0, i64* %_6.sroa.6.0..sroa_idx35.i.i45, align 8, !noalias !560
  %97 = bitcast %"scale_info::ty::fields::Field"* %_8.i.i.i31 to i8*
  call void @llvm.lifetime.start.p0i8(i64 72, i8* nonnull %97), !noalias !556
  call void @llvm.experimental.noalias.scope.decl(metadata !561)
  %_9.sroa.687.48..sroa_idx.i.i.i46 = getelementptr inbounds %"scale_info::ty::fields::Field", %"scale_info::ty::fields::Field"* %_8.i.i.i31, i64 0, i32 3, i32 0, i32 0
  store i64 0, i64* %_9.sroa.687.48..sroa_idx.i.i.i46, align 8, !alias.scope !564, !noalias !556
  %_9.sroa.8.48..sroa_idx90.i.i.i47 = getelementptr inbounds %"scale_info::ty::fields::Field", %"scale_info::ty::fields::Field"* %_8.i.i.i31, i64 0, i32 3, i32 0, i32 1
  store i64* %_2.1.i, i64** %_9.sroa.8.48..sroa_idx90.i.i.i47, align 8, !alias.scope !564, !noalias !556
  %_9.sroa.9.48..sroa_idx92.i.i.i48 = getelementptr inbounds %"scale_info::ty::fields::Field", %"scale_info::ty::fields::Field"* %_8.i.i.i31, i64 0, i32 3, i32 1
  store i64 0, i64* %_9.sroa.9.48..sroa_idx92.i.i.i48, align 8, !alias.scope !564, !noalias !556
  %98 = getelementptr inbounds %"scale_info::ty::fields::Field", %"scale_info::ty::fields::Field"* %_8.i.i.i31, i64 0, i32 0, i32 0
  store i8* null, i8** %98, align 8, !alias.scope !566, !noalias !569
  %99 = getelementptr inbounds %"scale_info::ty::fields::Field", %"scale_info::ty::fields::Field"* %_8.i.i.i31, i64 0, i32 2, i32 0
  store i64 -7044183350801047663, i64* %99, align 8, !alias.scope !566, !noalias !569
  %100 = getelementptr inbounds %"scale_info::ty::fields::Field", %"scale_info::ty::fields::Field"* %_8.i.i.i31, i64 0, i32 2, i32 1
  store i64* bitcast (void (%"scale_info::ty::Type"*)* @"_ZN14ink_primitives1_76_$LT$impl$u20$scale_info..TypeInfo$u20$for$u20$ink_primitives..LangError$GT$9type_info17hdc478b50333345e5E" to i64*), i64** %100, align 8, !alias.scope !566, !noalias !569
  %101 = getelementptr inbounds %"scale_info::ty::fields::Field", %"scale_info::ty::fields::Field"* %_8.i.i.i31, i64 0, i32 1, i32 0
  store i8* null, i8** %101, align 8, !alias.scope !566, !noalias !569
  call void @llvm.experimental.noalias.scope.decl(metadata !573)
  call void @llvm.experimental.noalias.scope.decl(metadata !576)
  %_5.i.i.i.i49 = getelementptr inbounds %"scale_info::ty::fields::Field", %"scale_info::ty::fields::Field"* %_8.i.i.i31, i64 0, i32 2
; invoke scale_info::meta_type::MetaType::is_phantom
  %_4.i.i.i.i50 = invoke noundef zeroext i1 @_ZN10scale_info9meta_type8MetaType10is_phantom17hc147d9272919729eE({ i64, i64* }* noalias noundef nonnull readonly align 8 dereferenceable(16) %_5.i.i.i.i49)
          to label %bb1.i.i.i.i54 unwind label %bb9.i11.i.i.i62, !noalias !578

cleanup.body.i53:                                 ; preds = %cleanup.i.i93, %bb8.i.i85, %bb6.i.i72
  %eh.lpad-body.i52 = phi { i8*, i32 } [ %.pn.ph.i.i.i.i71, %bb6.i.i72 ], [ %121, %bb8.i.i85 ], [ %138, %cleanup.i.i93 ]
; invoke core::ptr::drop_in_place<scale_info::build::Variants>
  invoke fastcc void @"_ZN4core3ptr48drop_in_place$LT$scale_info..build..Variants$GT$17h969a766fc647e422E"(%"scale_info::build::Variants"* noundef nonnull %_19) #27
          to label %bb15 unwind label %abort.i99, !noalias !540

bb1.i.i.i.i54:                                    ; preds = %bb11
  br i1 %_4.i.i.i.i50, label %bb8.i.i.i.i65, label %bb1.i16.i.i.i56

bb1.i16.i.i.i56:                                  ; preds = %bb1.i.i.i.i54
  %102 = bitcast %"scale_info::ty::fields::Field"* %_8.i.i.i.i30 to i8*
  call void @llvm.lifetime.start.p0i8(i64 72, i8* nonnull %102), !noalias !579
  call void @llvm.memcpy.p0i8.p0i8.i64(i8* noundef nonnull align 8 dereferenceable(72) %102, i8* noundef nonnull align 8 dereferenceable(72) %97, i64 72, i1 false), !noalias !578
  call void @llvm.experimental.noalias.scope.decl(metadata !581)
  %self1.i.i.i.i55 = bitcast %"scale_info::build::FieldsBuilder<scale_info::form::MetaForm, scale_info::build::UnnamedFields>"* %_7.i.i.i32 to { i64, i64* }*
; invoke alloc::raw_vec::RawVec<T,A>::reserve_for_push
  invoke fastcc void @"_ZN5alloc7raw_vec19RawVec$LT$T$C$A$GT$16reserve_for_push17h9a7fc05835fd945bE"({ i64, i64* }* noalias noundef nonnull align 8 dereferenceable(16) %self1.i.i.i.i55, i64 noundef 0)
          to label %bb3.i10.i.i.i61 unwind label %cleanup.i17.i.i.i57, !noalias !584

cleanup.i17.i.i.i57:                              ; preds = %bb1.i16.i.i.i56
  %103 = landingpad { i8*, i32 }
          cleanup
  br label %bb6.i.i72

bb3.i10.i.i.i61:                                  ; preds = %bb1.i16.i.i.i56
  %count.pre.i.i.i.i58 = load i64, i64* %_6.sroa.6.0..sroa_idx35.i.i45, align 8, !alias.scope !581, !noalias !584
  %104 = bitcast i64** %_6.sroa.5.0..sroa_idx31.i.i44 to %"scale_info::ty::fields::Field"**
  %self313.i.i.i.i59 = load %"scale_info::ty::fields::Field"*, %"scale_info::ty::fields::Field"** %104, align 8, !alias.scope !581, !noalias !584, !nonnull !59
  %105 = getelementptr inbounds %"scale_info::ty::fields::Field", %"scale_info::ty::fields::Field"* %self313.i.i.i.i59, i64 %count.pre.i.i.i.i58
  %106 = bitcast %"scale_info::ty::fields::Field"* %105 to i8*
  call void @llvm.memcpy.p0i8.p0i8.i64(i8* noundef nonnull align 8 dereferenceable(72) %106, i8* noundef nonnull align 8 dereferenceable(72) %102, i64 72, i1 false), !noalias !586
  %107 = add i64 %count.pre.i.i.i.i58, 1
  store i64 %107, i64* %_6.sroa.6.0..sroa_idx35.i.i45, align 8, !alias.scope !581, !noalias !584
  call void @llvm.lifetime.end.p0i8(i64 72, i8* nonnull %102), !noalias !579
  %_5.sroa.0.sroa.0.0.copyload.i.i60 = load i64, i64* %_6.sroa.0.0..sroa_cast.i.i43, align 8, !alias.scope !587, !noalias !588
  %108 = bitcast %"scale_info::ty::fields::Field"* %self313.i.i.i.i59 to i64*
  br label %bb2.i80

bb9.i11.i.i.i62:                                  ; preds = %bb11
  %109 = landingpad { i8*, i32 }
          cleanup
  br label %bb6.i.i72

bb8.i.i.i.i65:                                    ; preds = %bb1.i.i.i.i54
  call void @llvm.experimental.noalias.scope.decl(metadata !589) #26, !noalias !587
  %_4.i.i.i.i.i.i.i.i63 = load i64, i64* %_9.sroa.687.48..sroa_idx.i.i.i46, align 8, !alias.scope !592, !noalias !595, !noundef !59
  %_3.i.i.i.i.i.i.i.i64 = icmp eq i64 %_4.i.i.i.i.i.i.i.i63, 0
  br i1 %_3.i.i.i.i.i.i.i.i64, label %bb2.i80, label %bb2.i.i.i.i.i.i.i69

bb2.i.i.i.i.i.i.i69:                              ; preds = %bb8.i.i.i.i65
  %_6.i.i.i.i.i.i.i.i.i66 = icmp ult i64 %_4.i.i.i.i.i.i.i.i63, 576460752303423488
  %array_size.i.i.i.i.i.i.i.i.i67 = shl nuw nsw i64 %_4.i.i.i.i.i.i.i.i63, 4
  call void @llvm.assume(i1 %_6.i.i.i.i.i.i.i.i.i66) #26, !noalias !587
  %110 = bitcast i64** %_9.sroa.8.48..sroa_idx90.i.i.i47 to i8**
  %self11011.i.i.i.i.i.i.i.i68 = load i8*, i8** %110, align 8, !alias.scope !592, !noalias !595, !nonnull !59
  call void @__rust_dealloc(i8* noundef nonnull %self11011.i.i.i.i.i.i.i.i68, i64 noundef %array_size.i.i.i.i.i.i.i.i.i67, i64 noundef 8) #26, !noalias !597
  br label %bb2.i80

bb6.i.i72:                                        ; preds = %bb9.i11.i.i.i62, %cleanup.i17.i.i.i57
  %_8.i.sink.i.i.i70 = phi %"scale_info::ty::fields::Field"* [ %_8.i.i.i.i30, %cleanup.i17.i.i.i57 ], [ %_8.i.i.i31, %bb9.i11.i.i.i62 ]
  %.pn.ph.i.i.i.i71 = phi { i8*, i32 } [ %103, %cleanup.i17.i.i.i57 ], [ %109, %bb9.i11.i.i.i62 ]
; call core::ptr::drop_in_place<scale_info::ty::fields::Field>
  call fastcc void @"_ZN4core3ptr50drop_in_place$LT$scale_info..ty..fields..Field$GT$17h12cb7017fa87fa5cE"(%"scale_info::ty::fields::Field"* noundef nonnull %_8.i.sink.i.i.i70) #27, !noalias !598
  call fastcc void bitcast (void (%"scale_info::build::FieldsBuilder<scale_info::form::MetaForm, scale_info::build::NamedFields>"*)* @"_ZN4core3ptr120drop_in_place$LT$scale_info..build..FieldsBuilder$LT$scale_info..form..MetaForm$C$scale_info..build..NamedFields$GT$$GT$17hc1dcf047f74888d8E" to void (%"scale_info::build::FieldsBuilder<scale_info::form::MetaForm, scale_info::build::UnnamedFields>"*)*)(%"scale_info::build::FieldsBuilder<scale_info::form::MetaForm, scale_info::build::UnnamedFields>"* noundef nonnull %_7.i.i.i32) #27, !noalias !598
; invoke core::ptr::drop_in_place<scale_info::build::VariantBuilder<scale_info::form::MetaForm,scale_info::build::variant_state::IndexAssigned>>
  invoke fastcc void @"_ZN4core3ptr138drop_in_place$LT$scale_info..build..VariantBuilder$LT$scale_info..form..MetaForm$C$scale_info..build..variant_state..IndexAssigned$GT$$GT$17hec2fbcef90c23f4aE"(%"scale_info::build::VariantBuilder<scale_info::form::MetaForm, scale_info::build::variant_state::IndexAssigned>"* noundef nonnull %_3.i.i33) #27
          to label %cleanup.body.i53 unwind label %abort.i.i73, !noalias !545

abort.i.i73:                                      ; preds = %bb6.i.i72
  %111 = landingpad { i8*, i32 }
          cleanup
; call core::panicking::panic_cannot_unwind
  call void @_ZN4core9panicking19panic_cannot_unwind17h4d963c01e40eff8cE() #28, !noalias !545
  unreachable

bb2.i80:                                          ; preds = %bb2.i.i.i.i.i.i.i69, %bb8.i.i.i.i65, %bb3.i10.i.i.i61
  %_5.sroa.0.sroa.0.0.i.i74 = phi i64 [ 0, %bb8.i.i.i.i65 ], [ 0, %bb2.i.i.i.i.i.i.i69 ], [ %_5.sroa.0.sroa.0.0.copyload.i.i60, %bb3.i10.i.i.i61 ]
  %_5.sroa.0.sroa.5.0.i.i75 = phi i64* [ %_2.1.i, %bb8.i.i.i.i65 ], [ %_2.1.i, %bb2.i.i.i.i.i.i.i69 ], [ %108, %bb3.i10.i.i.i61 ]
  %_5.sroa.0.sroa.6.0.i.i76 = phi i64 [ 0, %bb8.i.i.i.i65 ], [ 0, %bb2.i.i.i.i.i.i.i69 ], [ %107, %bb3.i10.i.i.i61 ]
